; ModuleID = 'C:\temp2\llvm-project\WindbgPlugin\ExecutableTest\ReturnFromFrameTests.cpp'
source_filename = "C:\\temp2\\llvm-project\\WindbgPlugin\\ExecutableTest\\ReturnFromFrameTests.cpp"
target datalayout = "e-m:w-p270:32:32-p271:32:32-p272:64:64-i64:64-f80:128-n8:16:32:64-S128"
target triple = "x86_64-pc-windows-msvc19.27.29111"

%rtti.TypeDescriptor30 = type { i8**, i8*, [31 x i8] }
%eh.CatchableType = type { i32, i32, i32, i32, i32, i32, i32 }
%rtti.TypeDescriptor19 = type { i8**, i8*, [20 x i8] }
%eh.CatchableTypeArray.3 = type { i32, [3 x i32] }
%eh.ThrowInfo = type { i32, i32, i32, i32 }
%rtti.CompleteObjectLocator = type { i32, i32, i32, i32, i32, i32 }
%rtti.ClassHierarchyDescriptor = type { i32, i32, i32, i32 }
%rtti.BaseClassDescriptor = type { i32, i32, i32, i32, i32, i32, i32 }
%class.anon = type { i8 }
%"class.tests::returnFromFrame::M" = type { i32 }
%class.anon.0 = type { i8 }
%"class.std::basic_string" = type { %"class.std::_Compressed_pair" }
%"class.std::_Compressed_pair" = type { %"class.std::_String_val" }
%"class.std::_String_val" = type { %"union.std::_String_val<std::_Simple_types<char>>::_Bxty", i64, i64 }
%"union.std::_String_val<std::_Simple_types<char>>::_Bxty" = type { i8*, [8 x i8] }
%"struct.std::_Zero_then_variadic_args_t" = type { i8 }
%"struct.std::_Fake_allocator" = type { i8 }
%"struct.std::_Fake_proxy_ptr_impl" = type { i8 }
%"struct.std::_Container_base0" = type { i8 }
%"class.std::allocator" = type { i8 }
%class.anon.2 = type { i8 }
%"class.std::bad_array_new_length" = type { %"class.std::bad_alloc" }
%"class.std::bad_alloc" = type { %"class.std::exception" }
%"class.std::exception" = type { i32 (...)**, %struct.__std_exception_data }
%struct.__std_exception_data = type { i8*, i8 }

$"??1M@returnFromFrame@tests@@QEAA@XZ" = comdat any

$"??0?$basic_string@DU?$char_traits@D@std@@V?$allocator@D@2@@std@@QEAA@QEBD@Z" = comdat any

$"??$?9DU?$char_traits@D@std@@V?$allocator@D@1@@std@@YA_NAEBV?$basic_string@DU?$char_traits@D@std@@V?$allocator@D@2@@0@QEBD@Z" = comdat any

$"??1?$basic_string@DU?$char_traits@D@std@@V?$allocator@D@2@@std@@QEAA@XZ" = comdat any

$"?_Tidy_deallocate@?$basic_string@DU?$char_traits@D@std@@V?$allocator@D@2@@std@@AEAAXXZ" = comdat any

$"??1?$_Compressed_pair@V?$allocator@D@std@@V?$_String_val@U?$_Simple_types@D@std@@@2@$00@std@@QEAA@XZ" = comdat any

$"?_Orphan_all@_Container_base0@std@@QEAAXXZ" = comdat any

$"?_Large_string_engaged@?$_String_val@U?$_Simple_types@D@std@@@std@@QEBA_NXZ" = comdat any

$"?_Getal@?$basic_string@DU?$char_traits@D@std@@V?$allocator@D@2@@std@@AEAAAEAV?$allocator@D@2@XZ" = comdat any

$"??$_Destroy_in_place@PEAD@std@@YAXAEAPEAD@Z" = comdat any

$"?deallocate@?$allocator@D@std@@QEAAXQEAD_K@Z" = comdat any

$"?assign@?$_Narrow_char_traits@DH@std@@SAXAEADAEBD@Z" = comdat any

$"?_Get_first@?$_Compressed_pair@V?$allocator@D@std@@V?$_String_val@U?$_Simple_types@D@std@@@2@$00@std@@QEAAAEAV?$allocator@D@2@XZ" = comdat any

$"??$_Deallocate@$0BA@$0A@@std@@YAXPEAX_K@Z" = comdat any

$"?_Adjust_manually_vector_aligned@std@@YAXAEAPEAXAEA_K@Z" = comdat any

$"??1?$_String_val@U?$_Simple_types@D@std@@@std@@QEAA@XZ" = comdat any

$"??1_Bxty@?$_String_val@U?$_Simple_types@D@std@@@std@@QEAA@XZ" = comdat any

$"??$?0$$V@?$_Compressed_pair@V?$allocator@D@std@@V?$_String_val@U?$_Simple_types@D@std@@@2@$00@std@@QEAA@U_Zero_then_variadic_args_t@1@@Z" = comdat any

$"??0_Fake_proxy_ptr_impl@std@@QEAA@AEBU_Fake_allocator@1@AEBU_Container_base0@1@@Z" = comdat any

$"?_Tidy_init@?$basic_string@DU?$char_traits@D@std@@V?$allocator@D@2@@std@@AEAAXXZ" = comdat any

$"?assign@?$basic_string@DU?$char_traits@D@std@@V?$allocator@D@2@@std@@QEAAAEAV12@QEBD@Z" = comdat any

$"?_Release@_Fake_proxy_ptr_impl@std@@QEAAXXZ" = comdat any

$"??0?$allocator@D@std@@QEAA@XZ" = comdat any

$"??0?$_String_val@U?$_Simple_types@D@std@@@std@@QEAA@XZ" = comdat any

$"??0_Bxty@?$_String_val@U?$_Simple_types@D@std@@@std@@QEAA@XZ" = comdat any

$"?assign@?$basic_string@DU?$char_traits@D@std@@V?$allocator@D@2@@std@@QEAAAEAV12@QEBD_K@Z" = comdat any

$"??$_Convert_size@_K@std@@YA_K_K@Z" = comdat any

$"?length@?$_Narrow_char_traits@DH@std@@SA_KQEBD@Z" = comdat any

$"?_Myptr@?$_String_val@U?$_Simple_types@D@std@@@std@@QEAAPEADXZ" = comdat any

$"?move@?$_Narrow_char_traits@DH@std@@SAPEADQEADQEBD_K@Z" = comdat any

$"??$_Reallocate_for@V<lambda_1>@?0??assign@?$basic_string@DU?$char_traits@D@std@@V?$allocator@D@2@@std@@QEAAAEAV34@QEBD_K@Z@PEBD@?$basic_string@DU?$char_traits@D@std@@V?$allocator@D@2@@std@@AEAAAEAV01@_KV<lambda_1>@?0??assign@01@QEAAAEAV01@QEBD0@Z@PEBD@Z" = comdat any

$"??$_Unfancy@D@std@@YAPEADPEAD@Z" = comdat any

$"?max_size@?$basic_string@DU?$char_traits@D@std@@V?$allocator@D@2@@std@@QEBA_KXZ" = comdat any

$"?_Xlen_string@std@@YAXXZ" = comdat any

$"?_Calculate_growth@?$basic_string@DU?$char_traits@D@std@@V?$allocator@D@2@@std@@AEBA_K_K@Z" = comdat any

$"?allocate@?$allocator@D@std@@QEAAPEAD_K@Z" = comdat any

$"??R<lambda_1>@?0??assign@?$basic_string@DU?$char_traits@D@std@@V?$allocator@D@2@@std@@QEAAAEAV23@QEBD_K@Z@QEBA?A?<auto>@@QEAD10@Z" = comdat any

$"??$_Construct_in_place@PEADAEBQEAD@std@@YAXAEAPEADAEBQEAD@Z" = comdat any

$"?max_size@?$_Default_allocator_traits@V?$allocator@D@std@@@std@@SA_KAEBV?$allocator@D@2@@Z" = comdat any

$"?_Getal@?$basic_string@DU?$char_traits@D@std@@V?$allocator@D@2@@std@@AEBAAEBV?$allocator@D@2@XZ" = comdat any

$"??$max@_K@std@@YAAEB_KAEB_K0@Z" = comdat any

$"??$min@_K@std@@YAAEB_KAEB_K0@Z" = comdat any

$"?max@?$numeric_limits@_J@std@@SA_JXZ" = comdat any

$"?_Get_first@?$_Compressed_pair@V?$allocator@D@std@@V?$_String_val@U?$_Simple_types@D@std@@@2@$00@std@@QEBAAEBV?$allocator@D@2@XZ" = comdat any

$"?_Calculate_growth@?$basic_string@DU?$char_traits@D@std@@V?$allocator@D@2@@std@@CA_K_K00@Z" = comdat any

$"??$_Allocate@$0BA@U_Default_allocate_traits@std@@$0A@@std@@YAPEAX_K@Z" = comdat any

$"??$_Get_size_of_n@$00@std@@YA_K_K@Z" = comdat any

$"??$_Allocate_manually_vector_aligned@U_Default_allocate_traits@std@@@std@@YAPEAX_K@Z" = comdat any

$"?_Allocate@_Default_allocate_traits@std@@SAPEAX_K@Z" = comdat any

$"?_Throw_bad_array_new_length@std@@YAXXZ" = comdat any

$"??0bad_array_new_length@std@@QEAA@XZ" = comdat any

$"??0bad_array_new_length@std@@QEAA@AEBV01@@Z" = comdat any

$"??0bad_alloc@std@@QEAA@AEBV01@@Z" = comdat any

$"??0exception@std@@QEAA@AEBV01@@Z" = comdat any

$"??1bad_array_new_length@std@@UEAA@XZ" = comdat any

$"??0bad_alloc@std@@AEAA@QEBD@Z" = comdat any

$"??_Gbad_array_new_length@std@@UEAAPEAXI@Z" = comdat any

$"?what@exception@std@@UEBAPEBDXZ" = comdat any

$"??0exception@std@@QEAA@QEBDH@Z" = comdat any

$"??_Gbad_alloc@std@@UEAAPEAXI@Z" = comdat any

$"??_Gexception@std@@UEAAPEAXI@Z" = comdat any

$"??1exception@std@@UEAA@XZ" = comdat any

$"??1bad_alloc@std@@UEAA@XZ" = comdat any

$"?copy@?$_Narrow_char_traits@DH@std@@SAPEADQEADQEBD_K@Z" = comdat any

$"??$addressof@PEAD@std@@YAPEAPEADAEAPEAD@Z" = comdat any

$"??$forward@AEBQEAD@std@@YAAEBQEADAEBQEAD@Z" = comdat any

$"??$?8DU?$char_traits@D@std@@V?$allocator@D@1@@std@@YA_NAEBV?$basic_string@DU?$char_traits@D@std@@V?$allocator@D@2@@0@QEBD@Z" = comdat any

$"?_Equal@?$basic_string@DU?$char_traits@D@std@@V?$allocator@D@2@@std@@QEBA_NQEBD@Z" = comdat any

$"??$_Traits_equal@U?$char_traits@D@std@@@std@@YA_NQEBD_K01@Z" = comdat any

$"?_Myptr@?$_String_val@U?$_Simple_types@D@std@@@std@@QEBAPEBDXZ" = comdat any

$"?compare@?$_Narrow_char_traits@DH@std@@SAHQEBD0_K@Z" = comdat any

$"??_C@_02KLACJAOD@56?$AA@" = comdat any

$"??_C@_0BA@JFNIOLAK@string?5too?5long?$AA@" = comdat any

$"??_R0?AVbad_array_new_length@std@@@8" = comdat any

$"_CT??_R0?AVbad_array_new_length@std@@@8??0bad_array_new_length@std@@QEAA@AEBV01@@Z24" = comdat any

$"??_R0?AVbad_alloc@std@@@8" = comdat any

$"_CT??_R0?AVbad_alloc@std@@@8??0bad_alloc@std@@QEAA@AEBV01@@Z24" = comdat any

$"??_R0?AVexception@std@@@8" = comdat any

$"_CT??_R0?AVexception@std@@@8??0exception@std@@QEAA@AEBV01@@Z24" = comdat any

$"_CTA3?AVbad_array_new_length@std@@" = comdat any

$"_TI3?AVbad_array_new_length@std@@" = comdat any

$"??_C@_0BF@KINCDENJ@bad?5array?5new?5length?$AA@" = comdat any

$"??_7bad_array_new_length@std@@6B@" = comdat largest

$"??_R4bad_array_new_length@std@@6B@" = comdat any

$"??_R3bad_array_new_length@std@@8" = comdat any

$"??_R2bad_array_new_length@std@@8" = comdat any

$"??_R1A@?0A@EA@bad_array_new_length@std@@8" = comdat any

$"??_R1A@?0A@EA@bad_alloc@std@@8" = comdat any

$"??_R3bad_alloc@std@@8" = comdat any

$"??_R2bad_alloc@std@@8" = comdat any

$"??_R1A@?0A@EA@exception@std@@8" = comdat any

$"??_R3exception@std@@8" = comdat any

$"??_R2exception@std@@8" = comdat any

$"??_7bad_alloc@std@@6B@" = comdat largest

$"??_R4bad_alloc@std@@6B@" = comdat any

$"??_7exception@std@@6B@" = comdat largest

$"??_R4exception@std@@6B@" = comdat any

$"??_C@_0BC@EOODALEL@Unknown?5exception?$AA@" = comdat any

@"?g_counter@returnFromFrame@tests@@3HA" = dso_local dllexport global i32 0, align 4, !dbg !0
@"?g_frameTwoMet@returnFromFrame@tests@@3_NA" = dso_local dllexport global i8 0, align 1, !dbg !6
@"?g_notifyBp@@3_NA" = external dso_local global i8, align 1
@"?g_shouldPauseExecute@@3_NA" = external dso_local global i8, align 1
@"??_C@_02KLACJAOD@56?$AA@" = linkonce_odr dso_local unnamed_addr constant [3 x i8] c"56\00", comdat, align 1
@"??_C@_0BA@JFNIOLAK@string?5too?5long?$AA@" = linkonce_odr dso_local unnamed_addr constant [16 x i8] c"string too long\00", comdat, align 1
@"??_7type_info@@6B@" = external constant i8*
@"??_R0?AVbad_array_new_length@std@@@8" = linkonce_odr global %rtti.TypeDescriptor30 { i8** @"??_7type_info@@6B@", i8* null, [31 x i8] c".?AVbad_array_new_length@std@@\00" }, comdat
@__ImageBase = external dso_local constant i8
@"_CT??_R0?AVbad_array_new_length@std@@@8??0bad_array_new_length@std@@QEAA@AEBV01@@Z24" = linkonce_odr unnamed_addr constant %eh.CatchableType { i32 0, i32 trunc (i64 sub nuw nsw (i64 ptrtoint (%rtti.TypeDescriptor30* @"??_R0?AVbad_array_new_length@std@@@8" to i64), i64 ptrtoint (i8* @__ImageBase to i64)) to i32), i32 0, i32 -1, i32 0, i32 24, i32 trunc (i64 sub nuw nsw (i64 ptrtoint (%"class.std::bad_array_new_length"* (%"class.std::bad_array_new_length"*, %"class.std::bad_array_new_length"*)* @"??0bad_array_new_length@std@@QEAA@AEBV01@@Z" to i64), i64 ptrtoint (i8* @__ImageBase to i64)) to i32) }, section ".xdata", comdat
@"??_R0?AVbad_alloc@std@@@8" = linkonce_odr global %rtti.TypeDescriptor19 { i8** @"??_7type_info@@6B@", i8* null, [20 x i8] c".?AVbad_alloc@std@@\00" }, comdat
@"_CT??_R0?AVbad_alloc@std@@@8??0bad_alloc@std@@QEAA@AEBV01@@Z24" = linkonce_odr unnamed_addr constant %eh.CatchableType { i32 16, i32 trunc (i64 sub nuw nsw (i64 ptrtoint (%rtti.TypeDescriptor19* @"??_R0?AVbad_alloc@std@@@8" to i64), i64 ptrtoint (i8* @__ImageBase to i64)) to i32), i32 0, i32 -1, i32 0, i32 24, i32 trunc (i64 sub nuw nsw (i64 ptrtoint (%"class.std::bad_alloc"* (%"class.std::bad_alloc"*, %"class.std::bad_alloc"*)* @"??0bad_alloc@std@@QEAA@AEBV01@@Z" to i64), i64 ptrtoint (i8* @__ImageBase to i64)) to i32) }, section ".xdata", comdat
@"??_R0?AVexception@std@@@8" = linkonce_odr global %rtti.TypeDescriptor19 { i8** @"??_7type_info@@6B@", i8* null, [20 x i8] c".?AVexception@std@@\00" }, comdat
@"_CT??_R0?AVexception@std@@@8??0exception@std@@QEAA@AEBV01@@Z24" = linkonce_odr unnamed_addr constant %eh.CatchableType { i32 0, i32 trunc (i64 sub nuw nsw (i64 ptrtoint (%rtti.TypeDescriptor19* @"??_R0?AVexception@std@@@8" to i64), i64 ptrtoint (i8* @__ImageBase to i64)) to i32), i32 0, i32 -1, i32 0, i32 24, i32 trunc (i64 sub nuw nsw (i64 ptrtoint (%"class.std::exception"* (%"class.std::exception"*, %"class.std::exception"*)* @"??0exception@std@@QEAA@AEBV01@@Z" to i64), i64 ptrtoint (i8* @__ImageBase to i64)) to i32) }, section ".xdata", comdat
@"_CTA3?AVbad_array_new_length@std@@" = linkonce_odr unnamed_addr constant %eh.CatchableTypeArray.3 { i32 3, [3 x i32] [i32 trunc (i64 sub nuw nsw (i64 ptrtoint (%eh.CatchableType* @"_CT??_R0?AVbad_array_new_length@std@@@8??0bad_array_new_length@std@@QEAA@AEBV01@@Z24" to i64), i64 ptrtoint (i8* @__ImageBase to i64)) to i32), i32 trunc (i64 sub nuw nsw (i64 ptrtoint (%eh.CatchableType* @"_CT??_R0?AVbad_alloc@std@@@8??0bad_alloc@std@@QEAA@AEBV01@@Z24" to i64), i64 ptrtoint (i8* @__ImageBase to i64)) to i32), i32 trunc (i64 sub nuw nsw (i64 ptrtoint (%eh.CatchableType* @"_CT??_R0?AVexception@std@@@8??0exception@std@@QEAA@AEBV01@@Z24" to i64), i64 ptrtoint (i8* @__ImageBase to i64)) to i32)] }, section ".xdata", comdat
@"_TI3?AVbad_array_new_length@std@@" = linkonce_odr unnamed_addr constant %eh.ThrowInfo { i32 0, i32 trunc (i64 sub nuw nsw (i64 ptrtoint (void (%"class.std::bad_array_new_length"*)* @"??1bad_array_new_length@std@@UEAA@XZ" to i64), i64 ptrtoint (i8* @__ImageBase to i64)) to i32), i32 0, i32 trunc (i64 sub nuw nsw (i64 ptrtoint (%eh.CatchableTypeArray.3* @"_CTA3?AVbad_array_new_length@std@@" to i64), i64 ptrtoint (i8* @__ImageBase to i64)) to i32) }, section ".xdata", comdat
@"??_C@_0BF@KINCDENJ@bad?5array?5new?5length?$AA@" = linkonce_odr dso_local unnamed_addr constant [21 x i8] c"bad array new length\00", comdat, align 1
@0 = private unnamed_addr constant { [3 x i8*] } { [3 x i8*] [i8* bitcast (%rtti.CompleteObjectLocator* @"??_R4bad_array_new_length@std@@6B@" to i8*), i8* bitcast (i8* (%"class.std::bad_array_new_length"*, i32)* @"??_Gbad_array_new_length@std@@UEAAPEAXI@Z" to i8*), i8* bitcast (i8* (%"class.std::exception"*)* @"?what@exception@std@@UEBAPEBDXZ" to i8*)] }, comdat($"??_7bad_array_new_length@std@@6B@")
@"??_R4bad_array_new_length@std@@6B@" = linkonce_odr constant %rtti.CompleteObjectLocator { i32 1, i32 0, i32 0, i32 trunc (i64 sub nuw nsw (i64 ptrtoint (%rtti.TypeDescriptor30* @"??_R0?AVbad_array_new_length@std@@@8" to i64), i64 ptrtoint (i8* @__ImageBase to i64)) to i32), i32 trunc (i64 sub nuw nsw (i64 ptrtoint (%rtti.ClassHierarchyDescriptor* @"??_R3bad_array_new_length@std@@8" to i64), i64 ptrtoint (i8* @__ImageBase to i64)) to i32), i32 trunc (i64 sub nuw nsw (i64 ptrtoint (%rtti.CompleteObjectLocator* @"??_R4bad_array_new_length@std@@6B@" to i64), i64 ptrtoint (i8* @__ImageBase to i64)) to i32) }, comdat
@"??_R3bad_array_new_length@std@@8" = linkonce_odr constant %rtti.ClassHierarchyDescriptor { i32 0, i32 0, i32 3, i32 trunc (i64 sub nuw nsw (i64 ptrtoint ([4 x i32]* @"??_R2bad_array_new_length@std@@8" to i64), i64 ptrtoint (i8* @__ImageBase to i64)) to i32) }, comdat
@"??_R2bad_array_new_length@std@@8" = linkonce_odr constant [4 x i32] [i32 trunc (i64 sub nuw nsw (i64 ptrtoint (%rtti.BaseClassDescriptor* @"??_R1A@?0A@EA@bad_array_new_length@std@@8" to i64), i64 ptrtoint (i8* @__ImageBase to i64)) to i32), i32 trunc (i64 sub nuw nsw (i64 ptrtoint (%rtti.BaseClassDescriptor* @"??_R1A@?0A@EA@bad_alloc@std@@8" to i64), i64 ptrtoint (i8* @__ImageBase to i64)) to i32), i32 trunc (i64 sub nuw nsw (i64 ptrtoint (%rtti.BaseClassDescriptor* @"??_R1A@?0A@EA@exception@std@@8" to i64), i64 ptrtoint (i8* @__ImageBase to i64)) to i32), i32 0], comdat
@"??_R1A@?0A@EA@bad_array_new_length@std@@8" = linkonce_odr constant %rtti.BaseClassDescriptor { i32 trunc (i64 sub nuw nsw (i64 ptrtoint (%rtti.TypeDescriptor30* @"??_R0?AVbad_array_new_length@std@@@8" to i64), i64 ptrtoint (i8* @__ImageBase to i64)) to i32), i32 2, i32 0, i32 -1, i32 0, i32 64, i32 trunc (i64 sub nuw nsw (i64 ptrtoint (%rtti.ClassHierarchyDescriptor* @"??_R3bad_array_new_length@std@@8" to i64), i64 ptrtoint (i8* @__ImageBase to i64)) to i32) }, comdat
@"??_R1A@?0A@EA@bad_alloc@std@@8" = linkonce_odr constant %rtti.BaseClassDescriptor { i32 trunc (i64 sub nuw nsw (i64 ptrtoint (%rtti.TypeDescriptor19* @"??_R0?AVbad_alloc@std@@@8" to i64), i64 ptrtoint (i8* @__ImageBase to i64)) to i32), i32 1, i32 0, i32 -1, i32 0, i32 64, i32 trunc (i64 sub nuw nsw (i64 ptrtoint (%rtti.ClassHierarchyDescriptor* @"??_R3bad_alloc@std@@8" to i64), i64 ptrtoint (i8* @__ImageBase to i64)) to i32) }, comdat
@"??_R3bad_alloc@std@@8" = linkonce_odr constant %rtti.ClassHierarchyDescriptor { i32 0, i32 0, i32 2, i32 trunc (i64 sub nuw nsw (i64 ptrtoint ([3 x i32]* @"??_R2bad_alloc@std@@8" to i64), i64 ptrtoint (i8* @__ImageBase to i64)) to i32) }, comdat
@"??_R2bad_alloc@std@@8" = linkonce_odr constant [3 x i32] [i32 trunc (i64 sub nuw nsw (i64 ptrtoint (%rtti.BaseClassDescriptor* @"??_R1A@?0A@EA@bad_alloc@std@@8" to i64), i64 ptrtoint (i8* @__ImageBase to i64)) to i32), i32 trunc (i64 sub nuw nsw (i64 ptrtoint (%rtti.BaseClassDescriptor* @"??_R1A@?0A@EA@exception@std@@8" to i64), i64 ptrtoint (i8* @__ImageBase to i64)) to i32), i32 0], comdat
@"??_R1A@?0A@EA@exception@std@@8" = linkonce_odr constant %rtti.BaseClassDescriptor { i32 trunc (i64 sub nuw nsw (i64 ptrtoint (%rtti.TypeDescriptor19* @"??_R0?AVexception@std@@@8" to i64), i64 ptrtoint (i8* @__ImageBase to i64)) to i32), i32 0, i32 0, i32 -1, i32 0, i32 64, i32 trunc (i64 sub nuw nsw (i64 ptrtoint (%rtti.ClassHierarchyDescriptor* @"??_R3exception@std@@8" to i64), i64 ptrtoint (i8* @__ImageBase to i64)) to i32) }, comdat
@"??_R3exception@std@@8" = linkonce_odr constant %rtti.ClassHierarchyDescriptor { i32 0, i32 0, i32 1, i32 trunc (i64 sub nuw nsw (i64 ptrtoint ([2 x i32]* @"??_R2exception@std@@8" to i64), i64 ptrtoint (i8* @__ImageBase to i64)) to i32) }, comdat
@"??_R2exception@std@@8" = linkonce_odr constant [2 x i32] [i32 trunc (i64 sub nuw nsw (i64 ptrtoint (%rtti.BaseClassDescriptor* @"??_R1A@?0A@EA@exception@std@@8" to i64), i64 ptrtoint (i8* @__ImageBase to i64)) to i32), i32 0], comdat
@1 = private unnamed_addr constant { [3 x i8*] } { [3 x i8*] [i8* bitcast (%rtti.CompleteObjectLocator* @"??_R4bad_alloc@std@@6B@" to i8*), i8* bitcast (i8* (%"class.std::bad_alloc"*, i32)* @"??_Gbad_alloc@std@@UEAAPEAXI@Z" to i8*), i8* bitcast (i8* (%"class.std::exception"*)* @"?what@exception@std@@UEBAPEBDXZ" to i8*)] }, comdat($"??_7bad_alloc@std@@6B@")
@"??_R4bad_alloc@std@@6B@" = linkonce_odr constant %rtti.CompleteObjectLocator { i32 1, i32 0, i32 0, i32 trunc (i64 sub nuw nsw (i64 ptrtoint (%rtti.TypeDescriptor19* @"??_R0?AVbad_alloc@std@@@8" to i64), i64 ptrtoint (i8* @__ImageBase to i64)) to i32), i32 trunc (i64 sub nuw nsw (i64 ptrtoint (%rtti.ClassHierarchyDescriptor* @"??_R3bad_alloc@std@@8" to i64), i64 ptrtoint (i8* @__ImageBase to i64)) to i32), i32 trunc (i64 sub nuw nsw (i64 ptrtoint (%rtti.CompleteObjectLocator* @"??_R4bad_alloc@std@@6B@" to i64), i64 ptrtoint (i8* @__ImageBase to i64)) to i32) }, comdat
@2 = private unnamed_addr constant { [3 x i8*] } { [3 x i8*] [i8* bitcast (%rtti.CompleteObjectLocator* @"??_R4exception@std@@6B@" to i8*), i8* bitcast (i8* (%"class.std::exception"*, i32)* @"??_Gexception@std@@UEAAPEAXI@Z" to i8*), i8* bitcast (i8* (%"class.std::exception"*)* @"?what@exception@std@@UEBAPEBDXZ" to i8*)] }, comdat($"??_7exception@std@@6B@")
@"??_R4exception@std@@6B@" = linkonce_odr constant %rtti.CompleteObjectLocator { i32 1, i32 0, i32 0, i32 trunc (i64 sub nuw nsw (i64 ptrtoint (%rtti.TypeDescriptor19* @"??_R0?AVexception@std@@@8" to i64), i64 ptrtoint (i8* @__ImageBase to i64)) to i32), i32 trunc (i64 sub nuw nsw (i64 ptrtoint (%rtti.ClassHierarchyDescriptor* @"??_R3exception@std@@8" to i64), i64 ptrtoint (i8* @__ImageBase to i64)) to i32), i32 trunc (i64 sub nuw nsw (i64 ptrtoint (%rtti.CompleteObjectLocator* @"??_R4exception@std@@6B@" to i64), i64 ptrtoint (i8* @__ImageBase to i64)) to i32) }, comdat
@"??_C@_0BC@EOODALEL@Unknown?5exception?$AA@" = linkonce_odr dso_local unnamed_addr constant [18 x i8] c"Unknown exception\00", comdat, align 1

@"??_7bad_array_new_length@std@@6B@" = unnamed_addr alias i8*, getelementptr inbounds ({ [3 x i8*] }, { [3 x i8*] }* @0, i32 0, i32 0, i32 1)
@"??_7bad_alloc@std@@6B@" = unnamed_addr alias i8*, getelementptr inbounds ({ [3 x i8*] }, { [3 x i8*] }* @1, i32 0, i32 0, i32 1)
@"??_7exception@std@@6B@" = unnamed_addr alias i8*, getelementptr inbounds ({ [3 x i8*] }, { [3 x i8*] }* @2, i32 0, i32 0, i32 1)

; Function Attrs: noinline optnone uwtable
define dso_local dllexport void @"?sanity@returnFromFrame@tests@@YAX_N@Z"(i1 zeroext %0) #0 !dbg !1543 {
  %2 = alloca i8, align 1
  %3 = alloca %class.anon, align 1
  %4 = zext i1 %0 to i8
  store i8 %4, i8* %2, align 1
  call void @llvm.dbg.declare(metadata i8* %2, metadata !1546, metadata !DIExpression()), !dbg !1547
  call void @llvm.dbg.declare(metadata %class.anon* %3, metadata !1548, metadata !DIExpression()), !dbg !1550
  call void @"??R<lambda_0>@?0??sanity@returnFromFrame@tests@@YAX_N@Z@QEBA?A?<auto>@@XZ"(%class.anon* %3), !dbg !1551
  %5 = load i8, i8* %2, align 1, !dbg !1552
  %6 = trunc i8 %5 to i1, !dbg !1552
  br i1 %6, label %7, label %10, !dbg !1554

7:                                                ; preds = %1
  %8 = load i32, i32* @"?g_counter@returnFromFrame@tests@@3HA", align 4, !dbg !1555
  %9 = icmp eq i32 %8, 3, !dbg !1557
  call void @"?failTestIfFalse@@YAX_N@Z"(i1 zeroext %9), !dbg !1558
  br label %13, !dbg !1559

10:                                               ; preds = %1
  %11 = load i32, i32* @"?g_counter@returnFromFrame@tests@@3HA", align 4, !dbg !1560
  %12 = icmp eq i32 %11, 1, !dbg !1562
  call void @"?failTestIfFalse@@YAX_N@Z"(i1 zeroext %12), !dbg !1563
  br label %13

13:                                               ; preds = %10, %7
  ret void, !dbg !1564
}

; Function Attrs: nounwind readnone speculatable willreturn
declare void @llvm.dbg.declare(metadata, metadata, metadata) #1

; Function Attrs: noinline optnone uwtable
define internal void @"??R<lambda_0>@?0??sanity@returnFromFrame@tests@@YAX_N@Z@QEBA?A?<auto>@@XZ"(%class.anon* %0) #0 align 2 personality i8* bitcast (i32 (...)* @__CxxFrameHandler3 to i8*) !dbg !1565 {
  %2 = alloca %class.anon*, align 8
  %3 = alloca %"class.tests::returnFromFrame::M", align 4
  %4 = alloca %"class.tests::returnFromFrame::M", align 4
  %5 = alloca %"class.tests::returnFromFrame::M", align 4
  store %class.anon* %0, %class.anon** %2, align 8
  call void @llvm.dbg.declare(metadata %class.anon** %2, metadata !1574, metadata !DIExpression()), !dbg !1576
  %6 = load %class.anon*, %class.anon** %2, align 8
  call void @llvm.dbg.declare(metadata %"class.tests::returnFromFrame::M"* %3, metadata !1577, metadata !DIExpression()), !dbg !1585
  invoke void @fsf()
          to label %7 unwind label %25, !dbg !1586

7:                                                ; preds = %1
  %8 = getelementptr inbounds %"class.tests::returnFromFrame::M", %"class.tests::returnFromFrame::M"* %3, i32 0, i32 0, !dbg !1587
  store i32 2, i32* %8, align 4, !dbg !1588
  call void @llvm.dbg.declare(metadata %"class.tests::returnFromFrame::M"* %4, metadata !1589, metadata !DIExpression()), !dbg !1591
  invoke void @fsf()
          to label %9 unwind label %16, !dbg !1592

9:                                                ; preds = %7
  %10 = getelementptr inbounds %"class.tests::returnFromFrame::M", %"class.tests::returnFromFrame::M"* %4, i32 0, i32 0, !dbg !1593
  store i32 1, i32* %10, align 4, !dbg !1594
  invoke void @fsf()
          to label %11 unwind label %16, !dbg !1595

11:                                               ; preds = %9
  call void @"??1M@returnFromFrame@tests@@QEAA@XZ"(%"class.tests::returnFromFrame::M"* %4) #11, !dbg !1595
  store i8 1, i8* @"?g_notifyBp@@3_NA", align 1, !dbg !1596
  br label %12, !dbg !1596

12:                                               ; preds = %15, %11
  %13 = load i8, i8* @"?g_shouldPauseExecute@@3_NA", align 1, !dbg !1596
  %14 = trunc i8 %13 to i1, !dbg !1596
  br i1 %14, label %15, label %18, !dbg !1596

15:                                               ; preds = %12
  br label %12, !dbg !1596, !llvm.loop !1597

16:                                               ; preds = %9, %7
  %17 = cleanuppad within none [], !dbg !1595
  call void @"??1M@returnFromFrame@tests@@QEAA@XZ"(%"class.tests::returnFromFrame::M"* %4) #11 [ "funclet"(token %17) ], !dbg !1595
  cleanupret from %17 unwind label %25, !dbg !1595

18:                                               ; preds = %12
  store i8 1, i8* @"?g_shouldPauseExecute@@3_NA", align 1, !dbg !1596
  call void @llvm.dbg.declare(metadata %"class.tests::returnFromFrame::M"* %5, metadata !1598, metadata !DIExpression()), !dbg !1599
  invoke void @fsf()
          to label %19 unwind label %23, !dbg !1600

19:                                               ; preds = %18
  invoke void @"?failTestIfFalse@@YAX_N@Z"(i1 zeroext false)
          to label %20 unwind label %23, !dbg !1601

20:                                               ; preds = %19
  invoke void @fsf()
          to label %21 unwind label %23, !dbg !1602

21:                                               ; preds = %20
  call void @"??1M@returnFromFrame@tests@@QEAA@XZ"(%"class.tests::returnFromFrame::M"* %5) #11, !dbg !1602
  invoke void @fsf()
          to label %22 unwind label %25, !dbg !1602

22:                                               ; preds = %21
  call void @"??1M@returnFromFrame@tests@@QEAA@XZ"(%"class.tests::returnFromFrame::M"* %3) #11, !dbg !1602
  ret void, !dbg !1602

23:                                               ; preds = %20, %19, %18
  %24 = cleanuppad within none [], !dbg !1602
  call void @"??1M@returnFromFrame@tests@@QEAA@XZ"(%"class.tests::returnFromFrame::M"* %5) #11 [ "funclet"(token %24) ], !dbg !1602
  cleanupret from %24 unwind label %25, !dbg !1602

25:                                               ; preds = %21, %23, %16, %1
  %26 = cleanuppad within none [], !dbg !1602
  call void @"??1M@returnFromFrame@tests@@QEAA@XZ"(%"class.tests::returnFromFrame::M"* %3) #11 [ "funclet"(token %26) ], !dbg !1602
  cleanupret from %26 unwind to caller, !dbg !1602
}

declare dso_local void @"?failTestIfFalse@@YAX_N@Z"(i1 zeroext) #2

; Function Attrs: noinline optnone uwtable
define dso_local dllexport void @"?noOperationAfterConstructor@returnFromFrame@tests@@YAXXZ"() #0 !dbg !1603 {
  %1 = alloca %class.anon.0, align 1
  call void @llvm.dbg.declare(metadata %class.anon.0* %1, metadata !1604, metadata !DIExpression()), !dbg !1606
  call void @"??R<lambda_1>@?0??noOperationAfterConstructor@returnFromFrame@tests@@YAXXZ@QEBA?A?<auto>@@XZ"(%class.anon.0* %1), !dbg !1607
  %2 = load i32, i32* @"?g_counter@returnFromFrame@tests@@3HA", align 4, !dbg !1608
  %3 = icmp eq i32 %2, 2, !dbg !1609
  call void @"?failTestIfFalse@@YAX_N@Z"(i1 zeroext %3), !dbg !1610
  ret void, !dbg !1611
}

; Function Attrs: noinline optnone uwtable
define internal void @"??R<lambda_1>@?0??noOperationAfterConstructor@returnFromFrame@tests@@YAXXZ@QEBA?A?<auto>@@XZ"(%class.anon.0* %0) #0 align 2 personality i8* bitcast (i32 (...)* @__CxxFrameHandler3 to i8*) !dbg !1612 {
  %2 = alloca %class.anon.0*, align 8
  %3 = alloca %"class.tests::returnFromFrame::M", align 4
  store %class.anon.0* %0, %class.anon.0** %2, align 8
  call void @llvm.dbg.declare(metadata %class.anon.0** %2, metadata !1620, metadata !DIExpression()), !dbg !1622
  %4 = load %class.anon.0*, %class.anon.0** %2, align 8
  call void @llvm.dbg.declare(metadata %"class.tests::returnFromFrame::M"* %3, metadata !1623, metadata !DIExpression()), !dbg !1624
  invoke void @fsf()
          to label %5 unwind label %13, !dbg !1625

5:                                                ; preds = %1
  %6 = getelementptr inbounds %"class.tests::returnFromFrame::M", %"class.tests::returnFromFrame::M"* %3, i32 0, i32 0, !dbg !1626
  store i32 2, i32* %6, align 4, !dbg !1627
  store i8 1, i8* @"?g_notifyBp@@3_NA", align 1, !dbg !1628
  br label %7, !dbg !1628

7:                                                ; preds = %10, %5
  %8 = load i8, i8* @"?g_shouldPauseExecute@@3_NA", align 1, !dbg !1628
  %9 = trunc i8 %8 to i1, !dbg !1628
  br i1 %9, label %10, label %11, !dbg !1628

10:                                               ; preds = %7
  br label %7, !dbg !1628, !llvm.loop !1629

11:                                               ; preds = %7
  store i8 1, i8* @"?g_shouldPauseExecute@@3_NA", align 1, !dbg !1628
  invoke void @fsf()
          to label %12 unwind label %13, !dbg !1630

12:                                               ; preds = %11
  call void @"??1M@returnFromFrame@tests@@QEAA@XZ"(%"class.tests::returnFromFrame::M"* %3) #11, !dbg !1630
  ret void, !dbg !1630

13:                                               ; preds = %11, %1
  %14 = cleanuppad within none [], !dbg !1630
  call void @"??1M@returnFromFrame@tests@@QEAA@XZ"(%"class.tests::returnFromFrame::M"* %3) #11 [ "funclet"(token %14) ], !dbg !1630
  cleanupret from %14 unwind to caller, !dbg !1630
}

; Function Attrs: noinline optnone uwtable
define dso_local void @"?func1@returnFromFrame@tests@@YAXXZ"() #0 !dbg !1631 {
  store i8 1, i8* @"?g_notifyBp@@3_NA", align 1, !dbg !1632
  br label %1, !dbg !1632

1:                                                ; preds = %4, %0
  %2 = load i8, i8* @"?g_shouldPauseExecute@@3_NA", align 1, !dbg !1632
  %3 = trunc i8 %2 to i1, !dbg !1632
  br i1 %3, label %4, label %5, !dbg !1632

4:                                                ; preds = %1
  br label %1, !dbg !1632, !llvm.loop !1633

5:                                                ; preds = %1
  store i8 1, i8* @"?g_shouldPauseExecute@@3_NA", align 1, !dbg !1632
  ret void, !dbg !1634
}

; Function Attrs: noinline optnone uwtable
define dso_local void @"?func2@returnFromFrame@tests@@YAX_N@Z"(i1 zeroext %0) #0 personality i8* bitcast (i32 (...)* @__CxxFrameHandler3 to i8*) !dbg !1635 {
  %2 = alloca i8, align 1
  %3 = alloca %"class.tests::returnFromFrame::M", align 4
  %4 = zext i1 %0 to i8
  store i8 %4, i8* %2, align 1
  call void @llvm.dbg.declare(metadata i8* %2, metadata !1636, metadata !DIExpression()), !dbg !1637
  call void @llvm.dbg.declare(metadata %"class.tests::returnFromFrame::M"* %3, metadata !1638, metadata !DIExpression()), !dbg !1639
  invoke void @fsf()
          to label %5 unwind label %10, !dbg !1640

5:                                                ; preds = %1
  %6 = getelementptr inbounds %"class.tests::returnFromFrame::M", %"class.tests::returnFromFrame::M"* %3, i32 0, i32 0, !dbg !1641
  store i32 9, i32* %6, align 4, !dbg !1642
  invoke void @"?func1@returnFromFrame@tests@@YAXXZ"()
          to label %7 unwind label %10, !dbg !1643

7:                                                ; preds = %5
  invoke void @"?failTestIfFalse@@YAX_N@Z"(i1 zeroext false)
          to label %8 unwind label %10, !dbg !1644

8:                                                ; preds = %7
  invoke void @fsf()
          to label %9 unwind label %10, !dbg !1645

9:                                                ; preds = %8
  call void @"??1M@returnFromFrame@tests@@QEAA@XZ"(%"class.tests::returnFromFrame::M"* %3) #11, !dbg !1645
  ret void, !dbg !1645

10:                                               ; preds = %8, %7, %5, %1
  %11 = cleanuppad within none [], !dbg !1645
  call void @"??1M@returnFromFrame@tests@@QEAA@XZ"(%"class.tests::returnFromFrame::M"* %3) #11 [ "funclet"(token %11) ], !dbg !1645
  cleanupret from %11 unwind to caller, !dbg !1645
}

declare void @fsf()

declare dso_local i32 @__CxxFrameHandler3(...)

; Function Attrs: noinline nounwind optnone uwtable
define linkonce_odr dso_local void @"??1M@returnFromFrame@tests@@QEAA@XZ"(%"class.tests::returnFromFrame::M"* %0) unnamed_addr #3 comdat align 2 !dbg !1646 {
  %2 = alloca %"class.tests::returnFromFrame::M"*, align 8
  store %"class.tests::returnFromFrame::M"* %0, %"class.tests::returnFromFrame::M"** %2, align 8
  call void @llvm.dbg.declare(metadata %"class.tests::returnFromFrame::M"** %2, metadata !1647, metadata !DIExpression()), !dbg !1649
  %3 = load %"class.tests::returnFromFrame::M"*, %"class.tests::returnFromFrame::M"** %2, align 8
  %4 = getelementptr inbounds %"class.tests::returnFromFrame::M", %"class.tests::returnFromFrame::M"* %3, i32 0, i32 0, !dbg !1650
  %5 = load i32, i32* %4, align 4, !dbg !1650
  %6 = load i32, i32* @"?g_counter@returnFromFrame@tests@@3HA", align 4, !dbg !1652
  %7 = add nsw i32 %6, %5, !dbg !1652
  store i32 %7, i32* @"?g_counter@returnFromFrame@tests@@3HA", align 4, !dbg !1652
  ret void, !dbg !1653
}

; Function Attrs: noinline optnone uwtable
define dso_local dllexport void @"?untilTwoFrames@returnFromFrame@tests@@YAX_N@Z"(i1 zeroext %0) #0 personality i8* bitcast (i32 (...)* @__CxxFrameHandler3 to i8*) !dbg !1654 {
  %2 = alloca i8, align 1
  %3 = alloca %"class.std::basic_string", align 8
  %4 = zext i1 %0 to i8
  store i8 %4, i8* %2, align 1
  call void @llvm.dbg.declare(metadata i8* %2, metadata !1655, metadata !DIExpression()), !dbg !1656
  call void @llvm.dbg.declare(metadata %"class.std::basic_string"* %3, metadata !1657, metadata !DIExpression()), !dbg !1659
  %5 = call %"class.std::basic_string"* @"??0?$basic_string@DU?$char_traits@D@std@@V?$allocator@D@2@@std@@QEAA@QEBD@Z"(%"class.std::basic_string"* %3, i8* getelementptr inbounds ([3 x i8], [3 x i8]* @"??_C@_02KLACJAOD@56?$AA@", i64 0, i64 0)), !dbg !1660
  invoke void @fsf()
          to label %6 unwind label %17, !dbg !1661

6:                                                ; preds = %1
  %7 = load i8, i8* %2, align 1, !dbg !1662
  %8 = trunc i8 %7 to i1, !dbg !1662
  invoke void @"?func2@returnFromFrame@tests@@YAX_N@Z"(i1 zeroext %8)
          to label %9 unwind label %17, !dbg !1663

9:                                                ; preds = %6
  %10 = invoke zeroext i1 @"??$?9DU?$char_traits@D@std@@V?$allocator@D@1@@std@@YA_NAEBV?$basic_string@DU?$char_traits@D@std@@V?$allocator@D@2@@0@QEBD@Z"(%"class.std::basic_string"* nonnull align 8 dereferenceable(32) %3, i8* getelementptr inbounds ([3 x i8], [3 x i8]* @"??_C@_02KLACJAOD@56?$AA@", i64 0, i64 0))
          to label %11 unwind label %17, !dbg !1664

11:                                               ; preds = %9
  invoke void @"?failTestIfFalse@@YAX_N@Z"(i1 zeroext %10)
          to label %12 unwind label %17, !dbg !1665

12:                                               ; preds = %11
  %13 = load i32, i32* @"?g_counter@returnFromFrame@tests@@3HA", align 4, !dbg !1666
  %14 = icmp ne i32 %13, 9, !dbg !1667
  invoke void @"?failTestIfFalse@@YAX_N@Z"(i1 zeroext %14)
          to label %15 unwind label %17, !dbg !1668

15:                                               ; preds = %12
  store i8 1, i8* @"?g_frameTwoMet@returnFromFrame@tests@@3_NA", align 1, !dbg !1669
  invoke void @fsf()
          to label %16 unwind label %17, !dbg !1670

16:                                               ; preds = %15
  call void @"??1?$basic_string@DU?$char_traits@D@std@@V?$allocator@D@2@@std@@QEAA@XZ"(%"class.std::basic_string"* %3) #11, !dbg !1670
  ret void, !dbg !1670

17:                                               ; preds = %15, %12, %11, %9, %6, %1
  %18 = cleanuppad within none [], !dbg !1670
  call void @"??1?$basic_string@DU?$char_traits@D@std@@V?$allocator@D@2@@std@@QEAA@XZ"(%"class.std::basic_string"* %3) #11 [ "funclet"(token %18) ], !dbg !1670
  cleanupret from %18 unwind to caller, !dbg !1670
}

; Function Attrs: noinline optnone uwtable
define linkonce_odr dso_local %"class.std::basic_string"* @"??0?$basic_string@DU?$char_traits@D@std@@V?$allocator@D@2@@std@@QEAA@QEBD@Z"(%"class.std::basic_string"* returned %0, i8* %1) unnamed_addr #0 comdat align 2 personality i8* bitcast (i32 (...)* @__CxxFrameHandler3 to i8*) !dbg !1671 {
  %3 = alloca i8*, align 8
  %4 = alloca %"class.std::basic_string"*, align 8
  %5 = alloca %"struct.std::_Zero_then_variadic_args_t", align 1
  %6 = alloca %"struct.std::_Fake_allocator"*, align 8
  %7 = alloca %"struct.std::_Fake_allocator", align 1
  %8 = alloca %"struct.std::_Fake_proxy_ptr_impl", align 1
  store i8* %1, i8** %3, align 8
  call void @llvm.dbg.declare(metadata i8** %3, metadata !1672, metadata !DIExpression()), !dbg !1673
  store %"class.std::basic_string"* %0, %"class.std::basic_string"** %4, align 8
  call void @llvm.dbg.declare(metadata %"class.std::basic_string"** %4, metadata !1674, metadata !DIExpression()), !dbg !1676
  %9 = load %"class.std::basic_string"*, %"class.std::basic_string"** %4, align 8
  %10 = getelementptr inbounds %"class.std::basic_string", %"class.std::basic_string"* %9, i32 0, i32 0, !dbg !1677
  %11 = getelementptr inbounds %"struct.std::_Zero_then_variadic_args_t", %"struct.std::_Zero_then_variadic_args_t"* %5, i32 0, i32 0, !dbg !1677
  %12 = load i8, i8* %11, align 1, !dbg !1677
  %13 = call %"class.std::_Compressed_pair"* @"??$?0$$V@?$_Compressed_pair@V?$allocator@D@std@@V?$_String_val@U?$_Simple_types@D@std@@@2@$00@std@@QEAA@U_Zero_then_variadic_args_t@1@@Z"(%"class.std::_Compressed_pair"* %10, i8 %12), !dbg !1677
  invoke void @fsf()
          to label %14 unwind label %23, !dbg !1677

14:                                               ; preds = %2
  call void @llvm.dbg.declare(metadata %"struct.std::_Fake_allocator"** %6, metadata !1678, metadata !DIExpression()), !dbg !1681
  store %"struct.std::_Fake_allocator"* %7, %"struct.std::_Fake_allocator"** %6, align 8, !dbg !1681
  call void @llvm.dbg.declare(metadata %"struct.std::_Fake_proxy_ptr_impl"* %8, metadata !1682, metadata !DIExpression()), !dbg !1717
  %15 = getelementptr inbounds %"class.std::basic_string", %"class.std::basic_string"* %9, i32 0, i32 0, !dbg !1718
  %16 = getelementptr inbounds %"class.std::_Compressed_pair", %"class.std::_Compressed_pair"* %15, i32 0, i32 0, !dbg !1719
  %17 = bitcast %"class.std::_String_val"* %16 to %"struct.std::_Container_base0"*, !dbg !1718
  %18 = load %"struct.std::_Fake_allocator"*, %"struct.std::_Fake_allocator"** %6, align 8, !dbg !1720
  %19 = call %"struct.std::_Fake_proxy_ptr_impl"* @"??0_Fake_proxy_ptr_impl@std@@QEAA@AEBU_Fake_allocator@1@AEBU_Container_base0@1@@Z"(%"struct.std::_Fake_proxy_ptr_impl"* %8, %"struct.std::_Fake_allocator"* nonnull align 1 dereferenceable(1) %18, %"struct.std::_Container_base0"* nonnull align 1 dereferenceable(1) %17) #11, !dbg !1717
  call void @"?_Tidy_init@?$basic_string@DU?$char_traits@D@std@@V?$allocator@D@2@@std@@AEAAXXZ"(%"class.std::basic_string"* %9) #11, !dbg !1721
  %20 = load i8*, i8** %3, align 8, !dbg !1722
  %21 = invoke nonnull align 8 dereferenceable(32) %"class.std::basic_string"* @"?assign@?$basic_string@DU?$char_traits@D@std@@V?$allocator@D@2@@std@@QEAAAEAV12@QEBD@Z"(%"class.std::basic_string"* %9, i8* %20)
          to label %22 unwind label %23, !dbg !1723

22:                                               ; preds = %14
  call void @"?_Release@_Fake_proxy_ptr_impl@std@@QEAAXXZ"(%"struct.std::_Fake_proxy_ptr_impl"* %8) #11, !dbg !1724
  ret %"class.std::basic_string"* %9, !dbg !1725

23:                                               ; preds = %14, %2
  %24 = cleanuppad within none [], !dbg !1726
  call void @"??1?$_Compressed_pair@V?$allocator@D@std@@V?$_String_val@U?$_Simple_types@D@std@@@2@$00@std@@QEAA@XZ"(%"class.std::_Compressed_pair"* %10) #11 [ "funclet"(token %24) ], !dbg !1726
  cleanupret from %24 unwind to caller, !dbg !1726
}

; Function Attrs: noinline optnone uwtable
define linkonce_odr dso_local zeroext i1 @"??$?9DU?$char_traits@D@std@@V?$allocator@D@1@@std@@YA_NAEBV?$basic_string@DU?$char_traits@D@std@@V?$allocator@D@2@@0@QEBD@Z"(%"class.std::basic_string"* nonnull align 8 dereferenceable(32) %0, i8* %1) #0 comdat !dbg !1727 {
  %3 = alloca i8*, align 8
  %4 = alloca %"class.std::basic_string"*, align 8
  store i8* %1, i8** %3, align 8
  call void @llvm.dbg.declare(metadata i8** %3, metadata !1730, metadata !DIExpression()), !dbg !1731
  store %"class.std::basic_string"* %0, %"class.std::basic_string"** %4, align 8
  call void @llvm.dbg.declare(metadata %"class.std::basic_string"** %4, metadata !1732, metadata !DIExpression()), !dbg !1733
  %5 = load i8*, i8** %3, align 8, !dbg !1734
  %6 = load %"class.std::basic_string"*, %"class.std::basic_string"** %4, align 8, !dbg !1735
  %7 = call zeroext i1 @"??$?8DU?$char_traits@D@std@@V?$allocator@D@1@@std@@YA_NAEBV?$basic_string@DU?$char_traits@D@std@@V?$allocator@D@2@@0@QEBD@Z"(%"class.std::basic_string"* nonnull align 8 dereferenceable(32) %6, i8* %5), !dbg !1736
  %8 = xor i1 %7, true, !dbg !1737
  ret i1 %8, !dbg !1738
}

; Function Attrs: noinline nounwind optnone uwtable
define linkonce_odr dso_local void @"??1?$basic_string@DU?$char_traits@D@std@@V?$allocator@D@2@@std@@QEAA@XZ"(%"class.std::basic_string"* %0) unnamed_addr #3 comdat align 2 personality i8* bitcast (i32 (...)* @__CxxFrameHandler3 to i8*) !dbg !1739 {
  %2 = alloca %"class.std::basic_string"*, align 8
  store %"class.std::basic_string"* %0, %"class.std::basic_string"** %2, align 8
  call void @llvm.dbg.declare(metadata %"class.std::basic_string"** %2, metadata !1740, metadata !DIExpression()), !dbg !1741
  %3 = load %"class.std::basic_string"*, %"class.std::basic_string"** %2, align 8
  call void @"?_Tidy_deallocate@?$basic_string@DU?$char_traits@D@std@@V?$allocator@D@2@@std@@AEAAXXZ"(%"class.std::basic_string"* %3) #11, !dbg !1742
  invoke void @fsf()
          to label %4 unwind label <badref>, !dbg !1744

4:                                                ; preds = %1
  %5 = getelementptr inbounds %"class.std::basic_string", %"class.std::basic_string"* %3, i32 0, i32 0, !dbg !1744
  call void @"??1?$_Compressed_pair@V?$allocator@D@std@@V?$_String_val@U?$_Simple_types@D@std@@@2@$00@std@@QEAA@XZ"(%"class.std::_Compressed_pair"* %5) #11, !dbg !1744
  ret void, !dbg !1745
}

; Function Attrs: noinline nounwind optnone uwtable
define linkonce_odr dso_local void @"?_Tidy_deallocate@?$basic_string@DU?$char_traits@D@std@@V?$allocator@D@2@@std@@AEAAXXZ"(%"class.std::basic_string"* %0) #3 comdat align 2 personality i8* bitcast (i32 (...)* @__CxxFrameHandler3 to i8*) !dbg !1746 {
  %2 = alloca %"class.std::basic_string"*, align 8
  %3 = alloca i8*, align 8
  %4 = alloca %"class.std::allocator"*, align 8
  %5 = alloca i8, align 1
  store %"class.std::basic_string"* %0, %"class.std::basic_string"** %2, align 8
  call void @llvm.dbg.declare(metadata %"class.std::basic_string"** %2, metadata !1747, metadata !DIExpression()), !dbg !1748
  %6 = load %"class.std::basic_string"*, %"class.std::basic_string"** %2, align 8
  %7 = getelementptr inbounds %"class.std::basic_string", %"class.std::basic_string"* %6, i32 0, i32 0, !dbg !1749
  %8 = getelementptr inbounds %"class.std::_Compressed_pair", %"class.std::_Compressed_pair"* %7, i32 0, i32 0, !dbg !1750
  %9 = bitcast %"class.std::_String_val"* %8 to %"struct.std::_Container_base0"*, !dbg !1749
  call void @"?_Orphan_all@_Container_base0@std@@QEAAXXZ"(%"struct.std::_Container_base0"* %9) #11, !dbg !1751
  %10 = getelementptr inbounds %"class.std::basic_string", %"class.std::basic_string"* %6, i32 0, i32 0, !dbg !1752
  %11 = getelementptr inbounds %"class.std::_Compressed_pair", %"class.std::_Compressed_pair"* %10, i32 0, i32 0, !dbg !1754
  %12 = call zeroext i1 @"?_Large_string_engaged@?$_String_val@U?$_Simple_types@D@std@@@std@@QEBA_NXZ"(%"class.std::_String_val"* %11) #11, !dbg !1755
  br i1 %12, label %13, label %32, !dbg !1756

13:                                               ; preds = %1
  call void @llvm.dbg.declare(metadata i8** %3, metadata !1757, metadata !DIExpression()), !dbg !1761
  %14 = getelementptr inbounds %"class.std::basic_string", %"class.std::basic_string"* %6, i32 0, i32 0, !dbg !1762
  %15 = getelementptr inbounds %"class.std::_Compressed_pair", %"class.std::_Compressed_pair"* %14, i32 0, i32 0, !dbg !1763
  %16 = getelementptr inbounds %"class.std::_String_val", %"class.std::_String_val"* %15, i32 0, i32 0, !dbg !1764
  %17 = bitcast %"union.std::_String_val<std::_Simple_types<char>>::_Bxty"* %16 to i8**, !dbg !1765
  %18 = load i8*, i8** %17, align 8, !dbg !1765
  store i8* %18, i8** %3, align 8, !dbg !1761
  call void @llvm.dbg.declare(metadata %"class.std::allocator"** %4, metadata !1766, metadata !DIExpression()), !dbg !1767
  %19 = call nonnull align 1 dereferenceable(1) %"class.std::allocator"* @"?_Getal@?$basic_string@DU?$char_traits@D@std@@V?$allocator@D@2@@std@@AEAAAEAV?$allocator@D@2@XZ"(%"class.std::basic_string"* %6) #11, !dbg !1768
  store %"class.std::allocator"* %19, %"class.std::allocator"** %4, align 8, !dbg !1767
  %20 = getelementptr inbounds %"class.std::basic_string", %"class.std::basic_string"* %6, i32 0, i32 0, !dbg !1769
  %21 = getelementptr inbounds %"class.std::_Compressed_pair", %"class.std::_Compressed_pair"* %20, i32 0, i32 0, !dbg !1770
  %22 = getelementptr inbounds %"class.std::_String_val", %"class.std::_String_val"* %21, i32 0, i32 0, !dbg !1771
  %23 = bitcast %"union.std::_String_val<std::_Simple_types<char>>::_Bxty"* %22 to i8**, !dbg !1772
  call void @"??$_Destroy_in_place@PEAD@std@@YAXAEAPEAD@Z"(i8** nonnull align 8 dereferenceable(8) %23) #11, !dbg !1773
  %24 = load %"class.std::allocator"*, %"class.std::allocator"** %4, align 8, !dbg !1774
  %25 = getelementptr inbounds %"class.std::basic_string", %"class.std::basic_string"* %6, i32 0, i32 0, !dbg !1775
  %26 = getelementptr inbounds %"class.std::_Compressed_pair", %"class.std::_Compressed_pair"* %25, i32 0, i32 0, !dbg !1776
  %27 = getelementptr inbounds %"class.std::_String_val", %"class.std::_String_val"* %26, i32 0, i32 2, !dbg !1777
  %28 = load i64, i64* %27, align 8, !dbg !1777
  %29 = add i64 %28, 1, !dbg !1778
  %30 = load i8*, i8** %3, align 8, !dbg !1779
  invoke void @"?deallocate@?$allocator@D@std@@QEAAXQEAD_K@Z"(%"class.std::allocator"* %24, i8* %30, i64 %29)
          to label %31 unwind label %44, !dbg !1780

31:                                               ; preds = %13
  br label %32, !dbg !1781

32:                                               ; preds = %31, %1
  %33 = getelementptr inbounds %"class.std::basic_string", %"class.std::basic_string"* %6, i32 0, i32 0, !dbg !1782
  %34 = getelementptr inbounds %"class.std::_Compressed_pair", %"class.std::_Compressed_pair"* %33, i32 0, i32 0, !dbg !1783
  %35 = getelementptr inbounds %"class.std::_String_val", %"class.std::_String_val"* %34, i32 0, i32 1, !dbg !1784
  store i64 0, i64* %35, align 8, !dbg !1785
  %36 = getelementptr inbounds %"class.std::basic_string", %"class.std::basic_string"* %6, i32 0, i32 0, !dbg !1786
  %37 = getelementptr inbounds %"class.std::_Compressed_pair", %"class.std::_Compressed_pair"* %36, i32 0, i32 0, !dbg !1787
  %38 = getelementptr inbounds %"class.std::_String_val", %"class.std::_String_val"* %37, i32 0, i32 2, !dbg !1788
  store i64 15, i64* %38, align 8, !dbg !1789
  store i8 0, i8* %5, align 1, !dbg !1790
  %39 = getelementptr inbounds %"class.std::basic_string", %"class.std::basic_string"* %6, i32 0, i32 0, !dbg !1791
  %40 = getelementptr inbounds %"class.std::_Compressed_pair", %"class.std::_Compressed_pair"* %39, i32 0, i32 0, !dbg !1792
  %41 = getelementptr inbounds %"class.std::_String_val", %"class.std::_String_val"* %40, i32 0, i32 0, !dbg !1793
  %42 = bitcast %"union.std::_String_val<std::_Simple_types<char>>::_Bxty"* %41 to [16 x i8]*, !dbg !1794
  %43 = getelementptr inbounds [16 x i8], [16 x i8]* %42, i64 0, i64 0, !dbg !1791
  call void @"?assign@?$_Narrow_char_traits@DH@std@@SAXAEADAEBD@Z"(i8* nonnull align 1 dereferenceable(1) %43, i8* nonnull align 1 dereferenceable(1) %5) #11, !dbg !1795
  ret void, !dbg !1796

44:                                               ; preds = %13
  %45 = cleanuppad within none [], !dbg !1780
  call void @__std_terminate() #12 [ "funclet"(token %45) ], !dbg !1780
  unreachable, !dbg !1780
}

; Function Attrs: noinline nounwind optnone uwtable
define linkonce_odr dso_local void @"??1?$_Compressed_pair@V?$allocator@D@std@@V?$_String_val@U?$_Simple_types@D@std@@@2@$00@std@@QEAA@XZ"(%"class.std::_Compressed_pair"* %0) unnamed_addr #3 comdat align 2 personality i8* bitcast (i32 (...)* @__CxxFrameHandler3 to i8*) !dbg !1797 {
  %2 = alloca %"class.std::_Compressed_pair"*, align 8
  store %"class.std::_Compressed_pair"* %0, %"class.std::_Compressed_pair"** %2, align 8
  call void @llvm.dbg.declare(metadata %"class.std::_Compressed_pair"** %2, metadata !1801, metadata !DIExpression()), !dbg !1803
  %3 = load %"class.std::_Compressed_pair"*, %"class.std::_Compressed_pair"** %2, align 8
  invoke void @fsf()
          to label %4 unwind label <badref>, !dbg !1804

4:                                                ; preds = %1
  %5 = getelementptr inbounds %"class.std::_Compressed_pair", %"class.std::_Compressed_pair"* %3, i32 0, i32 0, !dbg !1804
  call void @"??1?$_String_val@U?$_Simple_types@D@std@@@std@@QEAA@XZ"(%"class.std::_String_val"* %5) #11, !dbg !1804
  ret void, !dbg !1806
}

; Function Attrs: noinline nounwind optnone uwtable
define linkonce_odr dso_local void @"?_Orphan_all@_Container_base0@std@@QEAAXXZ"(%"struct.std::_Container_base0"* %0) #3 comdat align 2 !dbg !1807 {
  %2 = alloca %"struct.std::_Container_base0"*, align 8
  store %"struct.std::_Container_base0"* %0, %"struct.std::_Container_base0"** %2, align 8
  call void @llvm.dbg.declare(metadata %"struct.std::_Container_base0"** %2, metadata !1808, metadata !DIExpression()), !dbg !1809
  %3 = load %"struct.std::_Container_base0"*, %"struct.std::_Container_base0"** %2, align 8
  ret void, !dbg !1810
}

; Function Attrs: noinline nounwind optnone uwtable
define linkonce_odr dso_local zeroext i1 @"?_Large_string_engaged@?$_String_val@U?$_Simple_types@D@std@@@std@@QEBA_NXZ"(%"class.std::_String_val"* %0) #3 comdat align 2 !dbg !1811 {
  %2 = alloca %"class.std::_String_val"*, align 8
  store %"class.std::_String_val"* %0, %"class.std::_String_val"** %2, align 8
  call void @llvm.dbg.declare(metadata %"class.std::_String_val"** %2, metadata !1812, metadata !DIExpression()), !dbg !1814
  %3 = load %"class.std::_String_val"*, %"class.std::_String_val"** %2, align 8
  %4 = getelementptr inbounds %"class.std::_String_val", %"class.std::_String_val"* %3, i32 0, i32 2, !dbg !1815
  %5 = load i64, i64* %4, align 8, !dbg !1815
  %6 = icmp ule i64 16, %5, !dbg !1816
  ret i1 %6, !dbg !1817
}

; Function Attrs: noinline nounwind optnone uwtable
define linkonce_odr dso_local nonnull align 1 dereferenceable(1) %"class.std::allocator"* @"?_Getal@?$basic_string@DU?$char_traits@D@std@@V?$allocator@D@2@@std@@AEAAAEAV?$allocator@D@2@XZ"(%"class.std::basic_string"* %0) #3 comdat align 2 !dbg !1818 {
  %2 = alloca %"class.std::basic_string"*, align 8
  store %"class.std::basic_string"* %0, %"class.std::basic_string"** %2, align 8
  call void @llvm.dbg.declare(metadata %"class.std::basic_string"** %2, metadata !1819, metadata !DIExpression()), !dbg !1820
  %3 = load %"class.std::basic_string"*, %"class.std::basic_string"** %2, align 8
  %4 = getelementptr inbounds %"class.std::basic_string", %"class.std::basic_string"* %3, i32 0, i32 0, !dbg !1821
  %5 = call nonnull align 1 dereferenceable(1) %"class.std::allocator"* @"?_Get_first@?$_Compressed_pair@V?$allocator@D@std@@V?$_String_val@U?$_Simple_types@D@std@@@2@$00@std@@QEAAAEAV?$allocator@D@2@XZ"(%"class.std::_Compressed_pair"* %4) #11, !dbg !1822
  ret %"class.std::allocator"* %5, !dbg !1823
}

; Function Attrs: noinline nounwind optnone uwtable
define linkonce_odr dso_local void @"??$_Destroy_in_place@PEAD@std@@YAXAEAPEAD@Z"(i8** nonnull align 8 dereferenceable(8) %0) #3 comdat !dbg !1824 {
  %2 = alloca i8**, align 8
  store i8** %0, i8*** %2, align 8
  call void @llvm.dbg.declare(metadata i8*** %2, metadata !1830, metadata !DIExpression()), !dbg !1831
  %3 = load i8**, i8*** %2, align 8, !dbg !1832
  ret void, !dbg !1833
}

; Function Attrs: noinline optnone uwtable
define linkonce_odr dso_local void @"?deallocate@?$allocator@D@std@@QEAAXQEAD_K@Z"(%"class.std::allocator"* %0, i8* %1, i64 %2) #0 comdat align 2 !dbg !1834 {
  %4 = alloca i64, align 8
  %5 = alloca i8*, align 8
  %6 = alloca %"class.std::allocator"*, align 8
  store i64 %2, i64* %4, align 8
  call void @llvm.dbg.declare(metadata i64* %4, metadata !1835, metadata !DIExpression()), !dbg !1836
  store i8* %1, i8** %5, align 8
  call void @llvm.dbg.declare(metadata i8** %5, metadata !1837, metadata !DIExpression()), !dbg !1838
  store %"class.std::allocator"* %0, %"class.std::allocator"** %6, align 8
  call void @llvm.dbg.declare(metadata %"class.std::allocator"** %6, metadata !1839, metadata !DIExpression()), !dbg !1841
  %7 = load %"class.std::allocator"*, %"class.std::allocator"** %6, align 8
  %8 = load i64, i64* %4, align 8, !dbg !1842
  %9 = mul i64 1, %8, !dbg !1843
  %10 = load i8*, i8** %5, align 8, !dbg !1844
  call void @"??$_Deallocate@$0BA@$0A@@std@@YAXPEAX_K@Z"(i8* %10, i64 %9) #11, !dbg !1845
  ret void, !dbg !1846
}

declare dso_local void @__std_terminate()

; Function Attrs: noinline nounwind optnone uwtable
define linkonce_odr dso_local void @"?assign@?$_Narrow_char_traits@DH@std@@SAXAEADAEBD@Z"(i8* nonnull align 1 dereferenceable(1) %0, i8* nonnull align 1 dereferenceable(1) %1) #3 comdat align 2 !dbg !1847 {
  %3 = alloca i8*, align 8
  %4 = alloca i8*, align 8
  store i8* %1, i8** %3, align 8
  call void @llvm.dbg.declare(metadata i8** %3, metadata !1848, metadata !DIExpression()), !dbg !1849
  store i8* %0, i8** %4, align 8
  call void @llvm.dbg.declare(metadata i8** %4, metadata !1850, metadata !DIExpression()), !dbg !1851
  %5 = load i8*, i8** %3, align 8, !dbg !1852
  %6 = load i8, i8* %5, align 1, !dbg !1852
  %7 = load i8*, i8** %4, align 8, !dbg !1853
  store i8 %6, i8* %7, align 1, !dbg !1854
  ret void, !dbg !1855
}

; Function Attrs: noinline nounwind optnone uwtable
define linkonce_odr dso_local nonnull align 1 dereferenceable(1) %"class.std::allocator"* @"?_Get_first@?$_Compressed_pair@V?$allocator@D@std@@V?$_String_val@U?$_Simple_types@D@std@@@2@$00@std@@QEAAAEAV?$allocator@D@2@XZ"(%"class.std::_Compressed_pair"* %0) #3 comdat align 2 !dbg !1856 {
  %2 = alloca %"class.std::_Compressed_pair"*, align 8
  store %"class.std::_Compressed_pair"* %0, %"class.std::_Compressed_pair"** %2, align 8
  call void @llvm.dbg.declare(metadata %"class.std::_Compressed_pair"** %2, metadata !1857, metadata !DIExpression()), !dbg !1858
  %3 = load %"class.std::_Compressed_pair"*, %"class.std::_Compressed_pair"** %2, align 8
  %4 = bitcast %"class.std::_Compressed_pair"* %3 to %"class.std::allocator"*, !dbg !1859
  ret %"class.std::allocator"* %4, !dbg !1860
}

; Function Attrs: noinline nounwind optnone uwtable
define linkonce_odr dso_local void @"??$_Deallocate@$0BA@$0A@@std@@YAXPEAX_K@Z"(i8* %0, i64 %1) #3 comdat personality i8* bitcast (i32 (...)* @__CxxFrameHandler3 to i8*) !dbg !1861 {
  %3 = alloca i64, align 8
  %4 = alloca i8*, align 8
  store i64 %1, i64* %3, align 8
  call void @llvm.dbg.declare(metadata i64* %3, metadata !1867, metadata !DIExpression()), !dbg !1868
  store i8* %0, i8** %4, align 8
  call void @llvm.dbg.declare(metadata i8** %4, metadata !1869, metadata !DIExpression()), !dbg !1870
  %5 = load i64, i64* %3, align 8, !dbg !1871
  %6 = icmp uge i64 %5, 4096, !dbg !1873
  br i1 %6, label %7, label %9, !dbg !1874

7:                                                ; preds = %2
  invoke void @"?_Adjust_manually_vector_aligned@std@@YAXAEAPEAXAEA_K@Z"(i8** nonnull align 8 dereferenceable(8) %4, i64* nonnull align 8 dereferenceable(8) %3)
          to label %8 unwind label %12, !dbg !1875

8:                                                ; preds = %7
  br label %9, !dbg !1877

9:                                                ; preds = %8, %2
  %10 = load i64, i64* %3, align 8, !dbg !1878
  %11 = load i8*, i8** %4, align 8, !dbg !1879
  call void @"??3@YAXPEAX_K@Z"(i8* %11, i64 %10) #11, !dbg !1880
  ret void, !dbg !1881

12:                                               ; preds = %7
  %13 = cleanuppad within none [], !dbg !1875
  call void @__std_terminate() #12 [ "funclet"(token %13) ], !dbg !1875
  unreachable, !dbg !1875
}

; Function Attrs: noinline optnone uwtable
define linkonce_odr dso_local void @"?_Adjust_manually_vector_aligned@std@@YAXAEAPEAXAEA_K@Z"(i8** nonnull align 8 dereferenceable(8) %0, i64* nonnull align 8 dereferenceable(8) %1) #0 comdat !dbg !1882 {
  %3 = alloca i64*, align 8
  %4 = alloca i8**, align 8
  %5 = alloca i64*, align 8
  %6 = alloca i64, align 8
  %7 = alloca i64, align 8
  %8 = alloca i64, align 8
  store i64* %1, i64** %3, align 8
  call void @llvm.dbg.declare(metadata i64** %3, metadata !1887, metadata !DIExpression()), !dbg !1888
  store i8** %0, i8*** %4, align 8
  call void @llvm.dbg.declare(metadata i8*** %4, metadata !1889, metadata !DIExpression()), !dbg !1890
  %9 = load i64*, i64** %3, align 8, !dbg !1891
  %10 = load i64, i64* %9, align 8, !dbg !1892
  %11 = add i64 %10, 39, !dbg !1892
  store i64 %11, i64* %9, align 8, !dbg !1892
  call void @llvm.dbg.declare(metadata i64** %5, metadata !1893, metadata !DIExpression()), !dbg !1897
  %12 = load i8**, i8*** %4, align 8, !dbg !1898
  %13 = load i8*, i8** %12, align 8, !dbg !1898
  %14 = bitcast i8* %13 to i64*, !dbg !1899
  store i64* %14, i64** %5, align 8, !dbg !1897
  call void @llvm.dbg.declare(metadata i64* %6, metadata !1900, metadata !DIExpression()), !dbg !1901
  %15 = load i64*, i64** %5, align 8, !dbg !1902
  %16 = getelementptr inbounds i64, i64* %15, i64 -1, !dbg !1902
  %17 = load i64, i64* %16, align 8, !dbg !1902
  store i64 %17, i64* %6, align 8, !dbg !1901
  call void @llvm.dbg.declare(metadata i64* %7, metadata !1903, metadata !DIExpression()), !dbg !1904
  store i64 8, i64* %7, align 8, !dbg !1904
  call void @llvm.dbg.declare(metadata i64* %8, metadata !1905, metadata !DIExpression()), !dbg !1906
  %18 = load i8**, i8*** %4, align 8, !dbg !1907
  %19 = load i8*, i8** %18, align 8, !dbg !1907
  %20 = ptrtoint i8* %19 to i64, !dbg !1908
  %21 = load i64, i64* %6, align 8, !dbg !1909
  %22 = sub i64 %20, %21, !dbg !1910
  store i64 %22, i64* %8, align 8, !dbg !1906
  br label %23, !dbg !1911

23:                                               ; preds = %2
  %24 = load i64, i64* %8, align 8, !dbg !1912
  %25 = icmp uge i64 %24, 8, !dbg !1912
  br i1 %25, label %26, label %30, !dbg !1912

26:                                               ; preds = %23
  %27 = load i64, i64* %8, align 8, !dbg !1912
  %28 = icmp ule i64 %27, 39, !dbg !1912
  br i1 %28, label %29, label %30, !dbg !1915

29:                                               ; preds = %26
  br label %33, !dbg !1916

30:                                               ; preds = %26, %23
  br label %31, !dbg !1918

31:                                               ; preds = %30
  call void @_invalid_parameter_noinfo_noreturn() #13, !dbg !1920
  unreachable, !dbg !1920

32:                                               ; No predecessors!
  br label %33

33:                                               ; preds = %32, %29
  br label %34, !dbg !1915

34:                                               ; preds = %33
  %35 = load i64, i64* %6, align 8, !dbg !1922
  %36 = inttoptr i64 %35 to i8*, !dbg !1923
  %37 = load i8**, i8*** %4, align 8, !dbg !1924
  store i8* %36, i8** %37, align 8, !dbg !1925
  ret void, !dbg !1926
}

; Function Attrs: nounwind
declare dso_local void @"??3@YAXPEAX_K@Z"(i8*, i64) #4

; Function Attrs: noreturn
declare dso_local void @_invalid_parameter_noinfo_noreturn() #5

; Function Attrs: noinline nounwind optnone uwtable
define linkonce_odr dso_local void @"??1?$_String_val@U?$_Simple_types@D@std@@@std@@QEAA@XZ"(%"class.std::_String_val"* %0) unnamed_addr #3 comdat align 2 personality i8* bitcast (i32 (...)* @__CxxFrameHandler3 to i8*) !dbg !1927 {
  %2 = alloca %"class.std::_String_val"*, align 8
  store %"class.std::_String_val"* %0, %"class.std::_String_val"** %2, align 8
  call void @llvm.dbg.declare(metadata %"class.std::_String_val"** %2, metadata !1929, metadata !DIExpression()), !dbg !1931
  %3 = load %"class.std::_String_val"*, %"class.std::_String_val"** %2, align 8
  invoke void @fsf()
          to label %4 unwind label <badref>, !dbg !1932

4:                                                ; preds = %1
  %5 = getelementptr inbounds %"class.std::_String_val", %"class.std::_String_val"* %3, i32 0, i32 0, !dbg !1932
  call void @"??1_Bxty@?$_String_val@U?$_Simple_types@D@std@@@std@@QEAA@XZ"(%"union.std::_String_val<std::_Simple_types<char>>::_Bxty"* %5) #11, !dbg !1932
  ret void, !dbg !1934
}

; Function Attrs: noinline nounwind optnone uwtable
define linkonce_odr dso_local void @"??1_Bxty@?$_String_val@U?$_Simple_types@D@std@@@std@@QEAA@XZ"(%"union.std::_String_val<std::_Simple_types<char>>::_Bxty"* %0) unnamed_addr #3 comdat align 2 !dbg !1935 {
  %2 = alloca %"union.std::_String_val<std::_Simple_types<char>>::_Bxty"*, align 8
  store %"union.std::_String_val<std::_Simple_types<char>>::_Bxty"* %0, %"union.std::_String_val<std::_Simple_types<char>>::_Bxty"** %2, align 8
  call void @llvm.dbg.declare(metadata %"union.std::_String_val<std::_Simple_types<char>>::_Bxty"** %2, metadata !1936, metadata !DIExpression()), !dbg !1938
  %3 = load %"union.std::_String_val<std::_Simple_types<char>>::_Bxty"*, %"union.std::_String_val<std::_Simple_types<char>>::_Bxty"** %2, align 8
  ret void, !dbg !1939
}

; Function Attrs: noinline optnone uwtable
define linkonce_odr dso_local %"class.std::_Compressed_pair"* @"??$?0$$V@?$_Compressed_pair@V?$allocator@D@std@@V?$_String_val@U?$_Simple_types@D@std@@@2@$00@std@@QEAA@U_Zero_then_variadic_args_t@1@@Z"(%"class.std::_Compressed_pair"* returned %0, i8 %1) unnamed_addr #0 comdat align 2 personality i8* bitcast (i32 (...)* @__CxxFrameHandler3 to i8*) !dbg !1940 {
  %3 = alloca %"struct.std::_Zero_then_variadic_args_t", align 1
  %4 = alloca %"class.std::_Compressed_pair"*, align 8
  %5 = getelementptr inbounds %"struct.std::_Zero_then_variadic_args_t", %"struct.std::_Zero_then_variadic_args_t"* %3, i32 0, i32 0
  store i8 %1, i8* %5, align 1
  call void @llvm.dbg.declare(metadata %"struct.std::_Zero_then_variadic_args_t"* %3, metadata !1952, metadata !DIExpression()), !dbg !1953
  store %"class.std::_Compressed_pair"* %0, %"class.std::_Compressed_pair"** %4, align 8
  call void @llvm.dbg.declare(metadata %"class.std::_Compressed_pair"** %4, metadata !1954, metadata !DIExpression()), !dbg !1955
  %6 = load %"class.std::_Compressed_pair"*, %"class.std::_Compressed_pair"** %4, align 8
  %7 = bitcast %"class.std::_Compressed_pair"* %6 to %"class.std::allocator"*, !dbg !1956
  %8 = call %"class.std::allocator"* @"??0?$allocator@D@std@@QEAA@XZ"(%"class.std::allocator"* %7) #11, !dbg !1957
  %9 = getelementptr inbounds %"class.std::_Compressed_pair", %"class.std::_Compressed_pair"* %6, i32 0, i32 0, !dbg !1958
  %10 = call %"class.std::_String_val"* @"??0?$_String_val@U?$_Simple_types@D@std@@@std@@QEAA@XZ"(%"class.std::_String_val"* %9), !dbg !1958
  invoke void @fsf()
          to label %11 unwind label %12, !dbg !1958

11:                                               ; preds = %2
  ret %"class.std::_Compressed_pair"* %6, !dbg !1959

12:                                               ; preds = %2
  %13 = cleanuppad within none [], !dbg !1960
  call void @"??1?$_String_val@U?$_Simple_types@D@std@@@std@@QEAA@XZ"(%"class.std::_String_val"* %9) #11 [ "funclet"(token %13) ], !dbg !1960
  cleanupret from %13 unwind to caller, !dbg !1960
}

; Function Attrs: noinline nounwind optnone uwtable
define linkonce_odr dso_local %"struct.std::_Fake_proxy_ptr_impl"* @"??0_Fake_proxy_ptr_impl@std@@QEAA@AEBU_Fake_allocator@1@AEBU_Container_base0@1@@Z"(%"struct.std::_Fake_proxy_ptr_impl"* returned %0, %"struct.std::_Fake_allocator"* nonnull align 1 dereferenceable(1) %1, %"struct.std::_Container_base0"* nonnull align 1 dereferenceable(1) %2) unnamed_addr #3 comdat align 2 !dbg !1962 {
  %4 = alloca %"struct.std::_Container_base0"*, align 8
  %5 = alloca %"struct.std::_Fake_allocator"*, align 8
  %6 = alloca %"struct.std::_Fake_proxy_ptr_impl"*, align 8
  store %"struct.std::_Container_base0"* %2, %"struct.std::_Container_base0"** %4, align 8
  call void @llvm.dbg.declare(metadata %"struct.std::_Container_base0"** %4, metadata !1963, metadata !DIExpression()), !dbg !1964
  store %"struct.std::_Fake_allocator"* %1, %"struct.std::_Fake_allocator"** %5, align 8
  call void @llvm.dbg.declare(metadata %"struct.std::_Fake_allocator"** %5, metadata !1965, metadata !DIExpression()), !dbg !1966
  store %"struct.std::_Fake_proxy_ptr_impl"* %0, %"struct.std::_Fake_proxy_ptr_impl"** %6, align 8
  call void @llvm.dbg.declare(metadata %"struct.std::_Fake_proxy_ptr_impl"** %6, metadata !1967, metadata !DIExpression()), !dbg !1969
  %7 = load %"struct.std::_Fake_proxy_ptr_impl"*, %"struct.std::_Fake_proxy_ptr_impl"** %6, align 8
  ret %"struct.std::_Fake_proxy_ptr_impl"* %7, !dbg !1970
}

; Function Attrs: noinline nounwind optnone uwtable
define linkonce_odr dso_local void @"?_Tidy_init@?$basic_string@DU?$char_traits@D@std@@V?$allocator@D@2@@std@@AEAAXXZ"(%"class.std::basic_string"* %0) #3 comdat align 2 !dbg !1971 {
  %2 = alloca %"class.std::basic_string"*, align 8
  %3 = alloca i8, align 1
  store %"class.std::basic_string"* %0, %"class.std::basic_string"** %2, align 8
  call void @llvm.dbg.declare(metadata %"class.std::basic_string"** %2, metadata !1972, metadata !DIExpression()), !dbg !1973
  %4 = load %"class.std::basic_string"*, %"class.std::basic_string"** %2, align 8
  %5 = getelementptr inbounds %"class.std::basic_string", %"class.std::basic_string"* %4, i32 0, i32 0, !dbg !1974
  %6 = getelementptr inbounds %"class.std::_Compressed_pair", %"class.std::_Compressed_pair"* %5, i32 0, i32 0, !dbg !1975
  %7 = getelementptr inbounds %"class.std::_String_val", %"class.std::_String_val"* %6, i32 0, i32 1, !dbg !1976
  store i64 0, i64* %7, align 8, !dbg !1977
  %8 = getelementptr inbounds %"class.std::basic_string", %"class.std::basic_string"* %4, i32 0, i32 0, !dbg !1978
  %9 = getelementptr inbounds %"class.std::_Compressed_pair", %"class.std::_Compressed_pair"* %8, i32 0, i32 0, !dbg !1979
  %10 = getelementptr inbounds %"class.std::_String_val", %"class.std::_String_val"* %9, i32 0, i32 2, !dbg !1980
  store i64 15, i64* %10, align 8, !dbg !1981
  store i8 0, i8* %3, align 1, !dbg !1982
  %11 = getelementptr inbounds %"class.std::basic_string", %"class.std::basic_string"* %4, i32 0, i32 0, !dbg !1983
  %12 = getelementptr inbounds %"class.std::_Compressed_pair", %"class.std::_Compressed_pair"* %11, i32 0, i32 0, !dbg !1984
  %13 = getelementptr inbounds %"class.std::_String_val", %"class.std::_String_val"* %12, i32 0, i32 0, !dbg !1985
  %14 = bitcast %"union.std::_String_val<std::_Simple_types<char>>::_Bxty"* %13 to [16 x i8]*, !dbg !1986
  %15 = getelementptr inbounds [16 x i8], [16 x i8]* %14, i64 0, i64 0, !dbg !1983
  call void @"?assign@?$_Narrow_char_traits@DH@std@@SAXAEADAEBD@Z"(i8* nonnull align 1 dereferenceable(1) %15, i8* nonnull align 1 dereferenceable(1) %3) #11, !dbg !1987
  ret void, !dbg !1988
}

; Function Attrs: noinline optnone uwtable
define linkonce_odr dso_local nonnull align 8 dereferenceable(32) %"class.std::basic_string"* @"?assign@?$basic_string@DU?$char_traits@D@std@@V?$allocator@D@2@@std@@QEAAAEAV12@QEBD@Z"(%"class.std::basic_string"* %0, i8* %1) #0 comdat align 2 !dbg !1989 {
  %3 = alloca i8*, align 8
  %4 = alloca %"class.std::basic_string"*, align 8
  store i8* %1, i8** %3, align 8
  call void @llvm.dbg.declare(metadata i8** %3, metadata !1990, metadata !DIExpression()), !dbg !1991
  store %"class.std::basic_string"* %0, %"class.std::basic_string"** %4, align 8
  call void @llvm.dbg.declare(metadata %"class.std::basic_string"** %4, metadata !1992, metadata !DIExpression()), !dbg !1993
  %5 = load %"class.std::basic_string"*, %"class.std::basic_string"** %4, align 8
  %6 = load i8*, i8** %3, align 8, !dbg !1994
  %7 = call i64 @"?length@?$_Narrow_char_traits@DH@std@@SA_KQEBD@Z"(i8* %6) #11, !dbg !1995
  %8 = call i64 @"??$_Convert_size@_K@std@@YA_K_K@Z"(i64 %7) #11, !dbg !1996
  %9 = load i8*, i8** %3, align 8, !dbg !1997
  %10 = call nonnull align 8 dereferenceable(32) %"class.std::basic_string"* @"?assign@?$basic_string@DU?$char_traits@D@std@@V?$allocator@D@2@@std@@QEAAAEAV12@QEBD_K@Z"(%"class.std::basic_string"* %5, i8* %9, i64 %8), !dbg !1998
  ret %"class.std::basic_string"* %10, !dbg !1999
}

; Function Attrs: noinline nounwind optnone uwtable
define linkonce_odr dso_local void @"?_Release@_Fake_proxy_ptr_impl@std@@QEAAXXZ"(%"struct.std::_Fake_proxy_ptr_impl"* %0) #3 comdat align 2 !dbg !2000 {
  %2 = alloca %"struct.std::_Fake_proxy_ptr_impl"*, align 8
  store %"struct.std::_Fake_proxy_ptr_impl"* %0, %"struct.std::_Fake_proxy_ptr_impl"** %2, align 8
  call void @llvm.dbg.declare(metadata %"struct.std::_Fake_proxy_ptr_impl"** %2, metadata !2001, metadata !DIExpression()), !dbg !2002
  %3 = load %"struct.std::_Fake_proxy_ptr_impl"*, %"struct.std::_Fake_proxy_ptr_impl"** %2, align 8
  ret void, !dbg !2003
}

; Function Attrs: noinline nounwind optnone uwtable
define linkonce_odr dso_local %"class.std::allocator"* @"??0?$allocator@D@std@@QEAA@XZ"(%"class.std::allocator"* returned %0) unnamed_addr #3 comdat align 2 !dbg !2004 {
  %2 = alloca %"class.std::allocator"*, align 8
  store %"class.std::allocator"* %0, %"class.std::allocator"** %2, align 8
  call void @llvm.dbg.declare(metadata %"class.std::allocator"** %2, metadata !2005, metadata !DIExpression()), !dbg !2006
  %3 = load %"class.std::allocator"*, %"class.std::allocator"** %2, align 8
  ret %"class.std::allocator"* %3, !dbg !2007
}

; Function Attrs: noinline optnone uwtable
define linkonce_odr dso_local %"class.std::_String_val"* @"??0?$_String_val@U?$_Simple_types@D@std@@@std@@QEAA@XZ"(%"class.std::_String_val"* returned %0) unnamed_addr #0 comdat align 2 personality i8* bitcast (i32 (...)* @__CxxFrameHandler3 to i8*) !dbg !2008 {
  %2 = alloca %"class.std::_String_val"*, align 8
  store %"class.std::_String_val"* %0, %"class.std::_String_val"** %2, align 8
  call void @llvm.dbg.declare(metadata %"class.std::_String_val"** %2, metadata !2009, metadata !DIExpression()), !dbg !2010
  %3 = load %"class.std::_String_val"*, %"class.std::_String_val"** %2, align 8
  %4 = bitcast %"class.std::_String_val"* %3 to %"struct.std::_Container_base0"*, !dbg !2011
  %5 = getelementptr inbounds %"class.std::_String_val", %"class.std::_String_val"* %3, i32 0, i32 0, !dbg !2012
  %6 = call %"union.std::_String_val<std::_Simple_types<char>>::_Bxty"* @"??0_Bxty@?$_String_val@U?$_Simple_types@D@std@@@std@@QEAA@XZ"(%"union.std::_String_val<std::_Simple_types<char>>::_Bxty"* %5), !dbg !2012
  invoke void @fsf()
          to label %7 unwind label %10, !dbg !2012

7:                                                ; preds = %1
  %8 = getelementptr inbounds %"class.std::_String_val", %"class.std::_String_val"* %3, i32 0, i32 1, !dbg !2013
  store i64 0, i64* %8, align 8, !dbg !2013
  %9 = getelementptr inbounds %"class.std::_String_val", %"class.std::_String_val"* %3, i32 0, i32 2, !dbg !2014
  store i64 0, i64* %9, align 8, !dbg !2014
  ret %"class.std::_String_val"* %3, !dbg !2015

10:                                               ; preds = %1
  %11 = cleanuppad within none [], !dbg !2016
  call void @"??1_Bxty@?$_String_val@U?$_Simple_types@D@std@@@std@@QEAA@XZ"(%"union.std::_String_val<std::_Simple_types<char>>::_Bxty"* %5) #11 [ "funclet"(token %11) ], !dbg !2016
  cleanupret from %11 unwind to caller, !dbg !2016
}

; Function Attrs: noinline optnone uwtable
define linkonce_odr dso_local %"union.std::_String_val<std::_Simple_types<char>>::_Bxty"* @"??0_Bxty@?$_String_val@U?$_Simple_types@D@std@@@std@@QEAA@XZ"(%"union.std::_String_val<std::_Simple_types<char>>::_Bxty"* returned %0) unnamed_addr #0 comdat align 2 !dbg !2018 {
  %2 = alloca %"union.std::_String_val<std::_Simple_types<char>>::_Bxty"*, align 8
  store %"union.std::_String_val<std::_Simple_types<char>>::_Bxty"* %0, %"union.std::_String_val<std::_Simple_types<char>>::_Bxty"** %2, align 8
  call void @llvm.dbg.declare(metadata %"union.std::_String_val<std::_Simple_types<char>>::_Bxty"** %2, metadata !2019, metadata !DIExpression()), !dbg !2020
  %3 = load %"union.std::_String_val<std::_Simple_types<char>>::_Bxty"*, %"union.std::_String_val<std::_Simple_types<char>>::_Bxty"** %2, align 8
  ret %"union.std::_String_val<std::_Simple_types<char>>::_Bxty"* %3, !dbg !2021
}

; Function Attrs: noinline optnone uwtable
define linkonce_odr dso_local nonnull align 8 dereferenceable(32) %"class.std::basic_string"* @"?assign@?$basic_string@DU?$char_traits@D@std@@V?$allocator@D@2@@std@@QEAAAEAV12@QEBD_K@Z"(%"class.std::basic_string"* %0, i8* %1, i64 %2) #0 comdat align 2 !dbg !2022 {
  %4 = alloca %"class.std::basic_string"*, align 8
  %5 = alloca i64, align 8
  %6 = alloca i8*, align 8
  %7 = alloca %"class.std::basic_string"*, align 8
  %8 = alloca i8*, align 8
  %9 = alloca i8, align 1
  %10 = alloca %class.anon.2, align 1
  store i64 %2, i64* %5, align 8
  call void @llvm.dbg.declare(metadata i64* %5, metadata !2023, metadata !DIExpression()), !dbg !2024
  store i8* %1, i8** %6, align 8
  call void @llvm.dbg.declare(metadata i8** %6, metadata !2025, metadata !DIExpression()), !dbg !2026
  store %"class.std::basic_string"* %0, %"class.std::basic_string"** %7, align 8
  call void @llvm.dbg.declare(metadata %"class.std::basic_string"** %7, metadata !2027, metadata !DIExpression()), !dbg !2028
  %11 = load %"class.std::basic_string"*, %"class.std::basic_string"** %7, align 8
  %12 = load i64, i64* %5, align 8, !dbg !2029
  %13 = getelementptr inbounds %"class.std::basic_string", %"class.std::basic_string"* %11, i32 0, i32 0, !dbg !2031
  %14 = getelementptr inbounds %"class.std::_Compressed_pair", %"class.std::_Compressed_pair"* %13, i32 0, i32 0, !dbg !2032
  %15 = getelementptr inbounds %"class.std::_String_val", %"class.std::_String_val"* %14, i32 0, i32 2, !dbg !2033
  %16 = load i64, i64* %15, align 8, !dbg !2033
  %17 = icmp ule i64 %12, %16, !dbg !2034
  br i1 %17, label %18, label %33, !dbg !2035

18:                                               ; preds = %3
  call void @llvm.dbg.declare(metadata i8** %8, metadata !2036, metadata !DIExpression()), !dbg !2038
  %19 = getelementptr inbounds %"class.std::basic_string", %"class.std::basic_string"* %11, i32 0, i32 0, !dbg !2039
  %20 = getelementptr inbounds %"class.std::_Compressed_pair", %"class.std::_Compressed_pair"* %19, i32 0, i32 0, !dbg !2040
  %21 = call i8* @"?_Myptr@?$_String_val@U?$_Simple_types@D@std@@@std@@QEAAPEADXZ"(%"class.std::_String_val"* %20) #11, !dbg !2041
  store i8* %21, i8** %8, align 8, !dbg !2038
  %22 = load i64, i64* %5, align 8, !dbg !2042
  %23 = getelementptr inbounds %"class.std::basic_string", %"class.std::basic_string"* %11, i32 0, i32 0, !dbg !2043
  %24 = getelementptr inbounds %"class.std::_Compressed_pair", %"class.std::_Compressed_pair"* %23, i32 0, i32 0, !dbg !2044
  %25 = getelementptr inbounds %"class.std::_String_val", %"class.std::_String_val"* %24, i32 0, i32 1, !dbg !2045
  store i64 %22, i64* %25, align 8, !dbg !2046
  %26 = load i64, i64* %5, align 8, !dbg !2047
  %27 = load i8*, i8** %6, align 8, !dbg !2048
  %28 = load i8*, i8** %8, align 8, !dbg !2049
  %29 = call i8* @"?move@?$_Narrow_char_traits@DH@std@@SAPEADQEADQEBD_K@Z"(i8* %28, i8* %27, i64 %26) #11, !dbg !2050
  store i8 0, i8* %9, align 1, !dbg !2051
  %30 = load i8*, i8** %8, align 8, !dbg !2052
  %31 = load i64, i64* %5, align 8, !dbg !2053
  %32 = getelementptr inbounds i8, i8* %30, i64 %31, !dbg !2052
  call void @"?assign@?$_Narrow_char_traits@DH@std@@SAXAEADAEBD@Z"(i8* nonnull align 1 dereferenceable(1) %32, i8* nonnull align 1 dereferenceable(1) %9) #11, !dbg !2054
  store %"class.std::basic_string"* %11, %"class.std::basic_string"** %4, align 8, !dbg !2055
  br label %39, !dbg !2055

33:                                               ; preds = %3
  %34 = load i8*, i8** %6, align 8, !dbg !2056
  %35 = load i64, i64* %5, align 8, !dbg !2057
  %36 = getelementptr inbounds %class.anon.2, %class.anon.2* %10, i32 0, i32 0, !dbg !2058
  %37 = load i8, i8* %36, align 1, !dbg !2058
  %38 = call nonnull align 8 dereferenceable(32) %"class.std::basic_string"* @"??$_Reallocate_for@V<lambda_1>@?0??assign@?$basic_string@DU?$char_traits@D@std@@V?$allocator@D@2@@std@@QEAAAEAV34@QEBD_K@Z@PEBD@?$basic_string@DU?$char_traits@D@std@@V?$allocator@D@2@@std@@AEAAAEAV01@_KV<lambda_1>@?0??assign@01@QEAAAEAV01@QEBD0@Z@PEBD@Z"(%"class.std::basic_string"* %11, i64 %35, i8 %37, i8* %34), !dbg !2058
  store %"class.std::basic_string"* %38, %"class.std::basic_string"** %4, align 8, !dbg !2059
  br label %39, !dbg !2059

39:                                               ; preds = %33, %18
  %40 = load %"class.std::basic_string"*, %"class.std::basic_string"** %4, align 8, !dbg !2060
  ret %"class.std::basic_string"* %40, !dbg !2060
}

; Function Attrs: noinline nounwind optnone uwtable
define linkonce_odr dso_local i64 @"??$_Convert_size@_K@std@@YA_K_K@Z"(i64 %0) #3 comdat !dbg !2061 {
  %2 = alloca i64, align 8
  store i64 %0, i64* %2, align 8
  call void @llvm.dbg.declare(metadata i64* %2, metadata !2066, metadata !DIExpression()), !dbg !2067
  %3 = load i64, i64* %2, align 8, !dbg !2068
  ret i64 %3, !dbg !2069
}

; Function Attrs: noinline nounwind optnone uwtable
define linkonce_odr dso_local i64 @"?length@?$_Narrow_char_traits@DH@std@@SA_KQEBD@Z"(i8* %0) #3 comdat align 2 personality i8* bitcast (i32 (...)* @__CxxFrameHandler3 to i8*) !dbg !2070 {
  %2 = alloca i8*, align 8
  store i8* %0, i8** %2, align 8
  call void @llvm.dbg.declare(metadata i8** %2, metadata !2071, metadata !DIExpression()), !dbg !2072
  %3 = load i8*, i8** %2, align 8, !dbg !2073
  %4 = invoke i64 @strlen(i8* %3)
          to label %5 unwind label %6, !dbg !2074

5:                                                ; preds = %1
  ret i64 %4, !dbg !2075

6:                                                ; preds = %1
  %7 = cleanuppad within none [], !dbg !2074
  call void @__std_terminate() #12 [ "funclet"(token %7) ], !dbg !2074
  unreachable, !dbg !2074
}

; Function Attrs: noinline nounwind optnone uwtable
define linkonce_odr dso_local i8* @"?_Myptr@?$_String_val@U?$_Simple_types@D@std@@@std@@QEAAPEADXZ"(%"class.std::_String_val"* %0) #3 comdat align 2 !dbg !2076 {
  %2 = alloca %"class.std::_String_val"*, align 8
  %3 = alloca i8*, align 8
  store %"class.std::_String_val"* %0, %"class.std::_String_val"** %2, align 8
  call void @llvm.dbg.declare(metadata %"class.std::_String_val"** %2, metadata !2077, metadata !DIExpression()), !dbg !2078
  %4 = load %"class.std::_String_val"*, %"class.std::_String_val"** %2, align 8
  call void @llvm.dbg.declare(metadata i8** %3, metadata !2079, metadata !DIExpression()), !dbg !2080
  %5 = getelementptr inbounds %"class.std::_String_val", %"class.std::_String_val"* %4, i32 0, i32 0, !dbg !2081
  %6 = bitcast %"union.std::_String_val<std::_Simple_types<char>>::_Bxty"* %5 to [16 x i8]*, !dbg !2082
  %7 = getelementptr inbounds [16 x i8], [16 x i8]* %6, i64 0, i64 0, !dbg !2081
  store i8* %7, i8** %3, align 8, !dbg !2080
  %8 = call zeroext i1 @"?_Large_string_engaged@?$_String_val@U?$_Simple_types@D@std@@@std@@QEBA_NXZ"(%"class.std::_String_val"* %4) #11, !dbg !2083
  br i1 %8, label %9, label %14, !dbg !2085

9:                                                ; preds = %1
  %10 = getelementptr inbounds %"class.std::_String_val", %"class.std::_String_val"* %4, i32 0, i32 0, !dbg !2086
  %11 = bitcast %"union.std::_String_val<std::_Simple_types<char>>::_Bxty"* %10 to i8**, !dbg !2088
  %12 = load i8*, i8** %11, align 8, !dbg !2088
  %13 = call i8* @"??$_Unfancy@D@std@@YAPEADPEAD@Z"(i8* %12) #11, !dbg !2089
  store i8* %13, i8** %3, align 8, !dbg !2090
  br label %14, !dbg !2091

14:                                               ; preds = %9, %1
  %15 = load i8*, i8** %3, align 8, !dbg !2092
  ret i8* %15, !dbg !2093
}

; Function Attrs: noinline nounwind optnone uwtable
define linkonce_odr dso_local i8* @"?move@?$_Narrow_char_traits@DH@std@@SAPEADQEADQEBD_K@Z"(i8* %0, i8* %1, i64 %2) #3 comdat align 2 !dbg !2094 {
  %4 = alloca i64, align 8
  %5 = alloca i8*, align 8
  %6 = alloca i8*, align 8
  store i64 %2, i64* %4, align 8
  call void @llvm.dbg.declare(metadata i64* %4, metadata !2095, metadata !DIExpression()), !dbg !2096
  store i8* %1, i8** %5, align 8
  call void @llvm.dbg.declare(metadata i8** %5, metadata !2097, metadata !DIExpression()), !dbg !2098
  store i8* %0, i8** %6, align 8
  call void @llvm.dbg.declare(metadata i8** %6, metadata !2099, metadata !DIExpression()), !dbg !2100
  %7 = load i8*, i8** %6, align 8, !dbg !2101
  %8 = load i8*, i8** %5, align 8, !dbg !2102
  %9 = load i64, i64* %4, align 8, !dbg !2103
  call void @llvm.memmove.p0i8.p0i8.i64(i8* align 1 %7, i8* align 1 %8, i64 %9, i1 false), !dbg !2104
  ret i8* %7, !dbg !2105
}

; Function Attrs: noinline optnone uwtable
define linkonce_odr dso_local nonnull align 8 dereferenceable(32) %"class.std::basic_string"* @"??$_Reallocate_for@V<lambda_1>@?0??assign@?$basic_string@DU?$char_traits@D@std@@V?$allocator@D@2@@std@@QEAAAEAV34@QEBD_K@Z@PEBD@?$basic_string@DU?$char_traits@D@std@@V?$allocator@D@2@@std@@AEAAAEAV01@_KV<lambda_1>@?0??assign@01@QEAAAEAV01@QEBD0@Z@PEBD@Z"(%"class.std::basic_string"* %0, i64 %1, i8 %2, i8* %3) #0 comdat align 2 !dbg !2106 {
  %5 = alloca %class.anon.2, align 1
  %6 = alloca i8*, align 8
  %7 = alloca i64, align 8
  %8 = alloca %"class.std::basic_string"*, align 8
  %9 = alloca i64, align 8
  %10 = alloca i64, align 8
  %11 = alloca %"class.std::allocator"*, align 8
  %12 = alloca i8*, align 8
  %13 = getelementptr inbounds %class.anon.2, %class.anon.2* %5, i32 0, i32 0
  store i8 %2, i8* %13, align 1
  store i8* %3, i8** %6, align 8
  call void @llvm.dbg.declare(metadata i8** %6, metadata !2116, metadata !DIExpression()), !dbg !2117
  call void @llvm.dbg.declare(metadata %class.anon.2* %5, metadata !2118, metadata !DIExpression()), !dbg !2119
  store i64 %1, i64* %7, align 8
  call void @llvm.dbg.declare(metadata i64* %7, metadata !2120, metadata !DIExpression()), !dbg !2121
  store %"class.std::basic_string"* %0, %"class.std::basic_string"** %8, align 8
  call void @llvm.dbg.declare(metadata %"class.std::basic_string"** %8, metadata !2122, metadata !DIExpression()), !dbg !2123
  %14 = load %"class.std::basic_string"*, %"class.std::basic_string"** %8, align 8
  %15 = load i64, i64* %7, align 8, !dbg !2124
  %16 = call i64 @"?max_size@?$basic_string@DU?$char_traits@D@std@@V?$allocator@D@2@@std@@QEBA_KXZ"(%"class.std::basic_string"* %14) #11, !dbg !2126
  %17 = icmp ugt i64 %15, %16, !dbg !2127
  br i1 %17, label %18, label %19, !dbg !2128

18:                                               ; preds = %4
  call void @"?_Xlen_string@std@@YAXXZ"() #13, !dbg !2129
  unreachable, !dbg !2129

19:                                               ; preds = %4
  call void @llvm.dbg.declare(metadata i64* %9, metadata !2131, metadata !DIExpression()), !dbg !2132
  %20 = getelementptr inbounds %"class.std::basic_string", %"class.std::basic_string"* %14, i32 0, i32 0, !dbg !2133
  %21 = getelementptr inbounds %"class.std::_Compressed_pair", %"class.std::_Compressed_pair"* %20, i32 0, i32 0, !dbg !2134
  %22 = getelementptr inbounds %"class.std::_String_val", %"class.std::_String_val"* %21, i32 0, i32 2, !dbg !2135
  %23 = load i64, i64* %22, align 8, !dbg !2135
  store i64 %23, i64* %9, align 8, !dbg !2132
  call void @llvm.dbg.declare(metadata i64* %10, metadata !2136, metadata !DIExpression()), !dbg !2137
  %24 = load i64, i64* %7, align 8, !dbg !2138
  %25 = call i64 @"?_Calculate_growth@?$basic_string@DU?$char_traits@D@std@@V?$allocator@D@2@@std@@AEBA_K_K@Z"(%"class.std::basic_string"* %14, i64 %24) #11, !dbg !2139
  store i64 %25, i64* %10, align 8, !dbg !2137
  call void @llvm.dbg.declare(metadata %"class.std::allocator"** %11, metadata !2140, metadata !DIExpression()), !dbg !2141
  %26 = call nonnull align 1 dereferenceable(1) %"class.std::allocator"* @"?_Getal@?$basic_string@DU?$char_traits@D@std@@V?$allocator@D@2@@std@@AEAAAEAV?$allocator@D@2@XZ"(%"class.std::basic_string"* %14) #11, !dbg !2142
  store %"class.std::allocator"* %26, %"class.std::allocator"** %11, align 8, !dbg !2141
  call void @llvm.dbg.declare(metadata i8** %12, metadata !2143, metadata !DIExpression()), !dbg !2144
  %27 = load %"class.std::allocator"*, %"class.std::allocator"** %11, align 8, !dbg !2145
  %28 = load i64, i64* %10, align 8, !dbg !2146
  %29 = add i64 %28, 1, !dbg !2147
  %30 = call i8* @"?allocate@?$allocator@D@std@@QEAAPEAD_K@Z"(%"class.std::allocator"* %27, i64 %29), !dbg !2148, !heapallocsite !33
  store i8* %30, i8** %12, align 8, !dbg !2144
  %31 = getelementptr inbounds %"class.std::basic_string", %"class.std::basic_string"* %14, i32 0, i32 0, !dbg !2149
  %32 = getelementptr inbounds %"class.std::_Compressed_pair", %"class.std::_Compressed_pair"* %31, i32 0, i32 0, !dbg !2150
  %33 = bitcast %"class.std::_String_val"* %32 to %"struct.std::_Container_base0"*, !dbg !2149
  call void @"?_Orphan_all@_Container_base0@std@@QEAAXXZ"(%"struct.std::_Container_base0"* %33) #11, !dbg !2151
  %34 = load i64, i64* %7, align 8, !dbg !2152
  %35 = getelementptr inbounds %"class.std::basic_string", %"class.std::basic_string"* %14, i32 0, i32 0, !dbg !2153
  %36 = getelementptr inbounds %"class.std::_Compressed_pair", %"class.std::_Compressed_pair"* %35, i32 0, i32 0, !dbg !2154
  %37 = getelementptr inbounds %"class.std::_String_val", %"class.std::_String_val"* %36, i32 0, i32 1, !dbg !2155
  store i64 %34, i64* %37, align 8, !dbg !2156
  %38 = load i64, i64* %10, align 8, !dbg !2157
  %39 = getelementptr inbounds %"class.std::basic_string", %"class.std::basic_string"* %14, i32 0, i32 0, !dbg !2158
  %40 = getelementptr inbounds %"class.std::_Compressed_pair", %"class.std::_Compressed_pair"* %39, i32 0, i32 0, !dbg !2159
  %41 = getelementptr inbounds %"class.std::_String_val", %"class.std::_String_val"* %40, i32 0, i32 2, !dbg !2160
  store i64 %38, i64* %41, align 8, !dbg !2161
  %42 = load i8*, i8** %6, align 8, !dbg !2162
  %43 = load i64, i64* %7, align 8, !dbg !2163
  %44 = load i8*, i8** %12, align 8, !dbg !2164
  %45 = call i8* @"??$_Unfancy@D@std@@YAPEADPEAD@Z"(i8* %44) #11, !dbg !2165
  call void @"??R<lambda_1>@?0??assign@?$basic_string@DU?$char_traits@D@std@@V?$allocator@D@2@@std@@QEAAAEAV23@QEBD_K@Z@QEBA?A?<auto>@@QEAD10@Z"(%class.anon.2* %5, i8* %45, i64 %43, i8* %42), !dbg !2166
  %46 = load i64, i64* %9, align 8, !dbg !2167
  %47 = icmp ule i64 16, %46, !dbg !2169
  br i1 %47, label %48, label %62, !dbg !2170

48:                                               ; preds = %19
  %49 = load %"class.std::allocator"*, %"class.std::allocator"** %11, align 8, !dbg !2171
  %50 = load i64, i64* %9, align 8, !dbg !2173
  %51 = add i64 %50, 1, !dbg !2174
  %52 = getelementptr inbounds %"class.std::basic_string", %"class.std::basic_string"* %14, i32 0, i32 0, !dbg !2175
  %53 = getelementptr inbounds %"class.std::_Compressed_pair", %"class.std::_Compressed_pair"* %52, i32 0, i32 0, !dbg !2176
  %54 = getelementptr inbounds %"class.std::_String_val", %"class.std::_String_val"* %53, i32 0, i32 0, !dbg !2177
  %55 = bitcast %"union.std::_String_val<std::_Simple_types<char>>::_Bxty"* %54 to i8**, !dbg !2178
  %56 = load i8*, i8** %55, align 8, !dbg !2178
  call void @"?deallocate@?$allocator@D@std@@QEAAXQEAD_K@Z"(%"class.std::allocator"* %49, i8* %56, i64 %51), !dbg !2179
  %57 = load i8*, i8** %12, align 8, !dbg !2180
  %58 = getelementptr inbounds %"class.std::basic_string", %"class.std::basic_string"* %14, i32 0, i32 0, !dbg !2181
  %59 = getelementptr inbounds %"class.std::_Compressed_pair", %"class.std::_Compressed_pair"* %58, i32 0, i32 0, !dbg !2182
  %60 = getelementptr inbounds %"class.std::_String_val", %"class.std::_String_val"* %59, i32 0, i32 0, !dbg !2183
  %61 = bitcast %"union.std::_String_val<std::_Simple_types<char>>::_Bxty"* %60 to i8**, !dbg !2184
  store i8* %57, i8** %61, align 8, !dbg !2185
  br label %67, !dbg !2186

62:                                               ; preds = %19
  %63 = getelementptr inbounds %"class.std::basic_string", %"class.std::basic_string"* %14, i32 0, i32 0, !dbg !2187
  %64 = getelementptr inbounds %"class.std::_Compressed_pair", %"class.std::_Compressed_pair"* %63, i32 0, i32 0, !dbg !2189
  %65 = getelementptr inbounds %"class.std::_String_val", %"class.std::_String_val"* %64, i32 0, i32 0, !dbg !2190
  %66 = bitcast %"union.std::_String_val<std::_Simple_types<char>>::_Bxty"* %65 to i8**, !dbg !2191
  call void @"??$_Construct_in_place@PEADAEBQEAD@std@@YAXAEAPEADAEBQEAD@Z"(i8** nonnull align 8 dereferenceable(8) %66, i8** nonnull align 8 dereferenceable(8) %12) #11, !dbg !2192
  br label %67

67:                                               ; preds = %62, %48
  ret %"class.std::basic_string"* %14, !dbg !2193
}

; Function Attrs: noinline nounwind optnone uwtable
define linkonce_odr dso_local i8* @"??$_Unfancy@D@std@@YAPEADPEAD@Z"(i8* %0) #3 comdat !dbg !2194 {
  %2 = alloca i8*, align 8
  store i8* %0, i8** %2, align 8
  call void @llvm.dbg.declare(metadata i8** %2, metadata !2196, metadata !DIExpression()), !dbg !2197
  %3 = load i8*, i8** %2, align 8, !dbg !2198
  ret i8* %3, !dbg !2199
}

; Function Attrs: argmemonly nounwind willreturn
declare void @llvm.memmove.p0i8.p0i8.i64(i8* nocapture, i8* nocapture readonly, i64, i1 immarg) #6

; Function Attrs: noinline nounwind optnone uwtable
define linkonce_odr dso_local i64 @"?max_size@?$basic_string@DU?$char_traits@D@std@@V?$allocator@D@2@@std@@QEBA_KXZ"(%"class.std::basic_string"* %0) #3 comdat align 2 !dbg !2200 {
  %2 = alloca %"class.std::basic_string"*, align 8
  %3 = alloca i64, align 8
  %4 = alloca i64, align 8
  %5 = alloca i64, align 8
  %6 = alloca i64, align 8
  %7 = alloca i64, align 8
  store %"class.std::basic_string"* %0, %"class.std::basic_string"** %2, align 8
  call void @llvm.dbg.declare(metadata %"class.std::basic_string"** %2, metadata !2201, metadata !DIExpression()), !dbg !2203
  %8 = load %"class.std::basic_string"*, %"class.std::basic_string"** %2, align 8
  call void @llvm.dbg.declare(metadata i64* %3, metadata !2204, metadata !DIExpression()), !dbg !2205
  %9 = call nonnull align 1 dereferenceable(1) %"class.std::allocator"* @"?_Getal@?$basic_string@DU?$char_traits@D@std@@V?$allocator@D@2@@std@@AEBAAEBV?$allocator@D@2@XZ"(%"class.std::basic_string"* %8) #11, !dbg !2206
  %10 = call i64 @"?max_size@?$_Default_allocator_traits@V?$allocator@D@std@@@std@@SA_KAEBV?$allocator@D@2@@Z"(%"class.std::allocator"* nonnull align 1 dereferenceable(1) %9) #11, !dbg !2207
  store i64 %10, i64* %3, align 8, !dbg !2205
  call void @llvm.dbg.declare(metadata i64* %4, metadata !2208, metadata !DIExpression()), !dbg !2209
  store i64 16, i64* %5, align 8, !dbg !2210
  %11 = call nonnull align 8 dereferenceable(8) i64* @"??$max@_K@std@@YAAEB_KAEB_K0@Z"(i64* nonnull align 8 dereferenceable(8) %3, i64* nonnull align 8 dereferenceable(8) %5) #11, !dbg !2211
  %12 = load i64, i64* %11, align 8, !dbg !2211
  store i64 %12, i64* %4, align 8, !dbg !2209
  %13 = load i64, i64* %4, align 8, !dbg !2212
  %14 = sub i64 %13, 1, !dbg !2213
  store i64 %14, i64* %6, align 8, !dbg !2212
  %15 = call i64 @"?max@?$numeric_limits@_J@std@@SA_JXZ"() #11, !dbg !2214
  store i64 %15, i64* %7, align 8, !dbg !2215
  %16 = call nonnull align 8 dereferenceable(8) i64* @"??$min@_K@std@@YAAEB_KAEB_K0@Z"(i64* nonnull align 8 dereferenceable(8) %7, i64* nonnull align 8 dereferenceable(8) %6) #11, !dbg !2216
  %17 = load i64, i64* %16, align 8, !dbg !2216
  ret i64 %17, !dbg !2217
}

; Function Attrs: noinline noreturn optnone uwtable
define linkonce_odr dso_local void @"?_Xlen_string@std@@YAXXZ"() #7 comdat !dbg !2218 {
  call void @"?_Xlength_error@std@@YAXPEBD@Z"(i8* getelementptr inbounds ([16 x i8], [16 x i8]* @"??_C@_0BA@JFNIOLAK@string?5too?5long?$AA@", i64 0, i64 0)) #13, !dbg !2219
  unreachable, !dbg !2219
}

; Function Attrs: noinline nounwind optnone uwtable
define linkonce_odr dso_local i64 @"?_Calculate_growth@?$basic_string@DU?$char_traits@D@std@@V?$allocator@D@2@@std@@AEBA_K_K@Z"(%"class.std::basic_string"* %0, i64 %1) #3 comdat align 2 !dbg !2220 {
  %3 = alloca i64, align 8
  %4 = alloca %"class.std::basic_string"*, align 8
  store i64 %1, i64* %3, align 8
  call void @llvm.dbg.declare(metadata i64* %3, metadata !2221, metadata !DIExpression()), !dbg !2222
  store %"class.std::basic_string"* %0, %"class.std::basic_string"** %4, align 8
  call void @llvm.dbg.declare(metadata %"class.std::basic_string"** %4, metadata !2223, metadata !DIExpression()), !dbg !2224
  %5 = load %"class.std::basic_string"*, %"class.std::basic_string"** %4, align 8
  %6 = call i64 @"?max_size@?$basic_string@DU?$char_traits@D@std@@V?$allocator@D@2@@std@@QEBA_KXZ"(%"class.std::basic_string"* %5) #11, !dbg !2225
  %7 = getelementptr inbounds %"class.std::basic_string", %"class.std::basic_string"* %5, i32 0, i32 0, !dbg !2226
  %8 = getelementptr inbounds %"class.std::_Compressed_pair", %"class.std::_Compressed_pair"* %7, i32 0, i32 0, !dbg !2227
  %9 = getelementptr inbounds %"class.std::_String_val", %"class.std::_String_val"* %8, i32 0, i32 2, !dbg !2228
  %10 = load i64, i64* %9, align 8, !dbg !2228
  %11 = load i64, i64* %3, align 8, !dbg !2229
  %12 = call i64 @"?_Calculate_growth@?$basic_string@DU?$char_traits@D@std@@V?$allocator@D@2@@std@@CA_K_K00@Z"(i64 %11, i64 %10, i64 %6) #11, !dbg !2230
  ret i64 %12, !dbg !2231
}

; Function Attrs: noinline optnone uwtable
define linkonce_odr dso_local i8* @"?allocate@?$allocator@D@std@@QEAAPEAD_K@Z"(%"class.std::allocator"* %0, i64 %1) #0 comdat align 2 !dbg !2232 {
  %3 = alloca i64, align 8
  %4 = alloca %"class.std::allocator"*, align 8
  store i64 %1, i64* %3, align 8
  call void @llvm.dbg.declare(metadata i64* %3, metadata !2233, metadata !DIExpression()), !dbg !2234
  store %"class.std::allocator"* %0, %"class.std::allocator"** %4, align 8
  call void @llvm.dbg.declare(metadata %"class.std::allocator"** %4, metadata !2235, metadata !DIExpression()), !dbg !2236
  %5 = load %"class.std::allocator"*, %"class.std::allocator"** %4, align 8
  %6 = load i64, i64* %3, align 8, !dbg !2237
  %7 = call i64 @"??$_Get_size_of_n@$00@std@@YA_K_K@Z"(i64 %6), !dbg !2238
  %8 = call i8* @"??$_Allocate@$0BA@U_Default_allocate_traits@std@@$0A@@std@@YAPEAX_K@Z"(i64 %7), !dbg !2239, !heapallocsite !33
  ret i8* %8, !dbg !2240
}

; Function Attrs: noinline optnone uwtable
define linkonce_odr dso_local void @"??R<lambda_1>@?0??assign@?$basic_string@DU?$char_traits@D@std@@V?$allocator@D@2@@std@@QEAAAEAV23@QEBD_K@Z@QEBA?A?<auto>@@QEAD10@Z"(%class.anon.2* %0, i8* %1, i64 %2, i8* %3) #0 comdat align 2 !dbg !2241 {
  %5 = alloca i8*, align 8
  %6 = alloca i64, align 8
  %7 = alloca i8*, align 8
  %8 = alloca %class.anon.2*, align 8
  %9 = alloca i8, align 1
  store i8* %3, i8** %5, align 8
  call void @llvm.dbg.declare(metadata i8** %5, metadata !2249, metadata !DIExpression()), !dbg !2250
  store i64 %2, i64* %6, align 8
  call void @llvm.dbg.declare(metadata i64* %6, metadata !2251, metadata !DIExpression()), !dbg !2252
  store i8* %1, i8** %7, align 8
  call void @llvm.dbg.declare(metadata i8** %7, metadata !2253, metadata !DIExpression()), !dbg !2254
  store %class.anon.2* %0, %class.anon.2** %8, align 8
  call void @llvm.dbg.declare(metadata %class.anon.2** %8, metadata !2255, metadata !DIExpression()), !dbg !2257
  %10 = load %class.anon.2*, %class.anon.2** %8, align 8
  %11 = load i64, i64* %6, align 8, !dbg !2258
  %12 = load i8*, i8** %5, align 8, !dbg !2259
  %13 = load i8*, i8** %7, align 8, !dbg !2260
  %14 = call i8* @"?copy@?$_Narrow_char_traits@DH@std@@SAPEADQEADQEBD_K@Z"(i8* %13, i8* %12, i64 %11) #11, !dbg !2261
  store i8 0, i8* %9, align 1, !dbg !2262
  %15 = load i8*, i8** %7, align 8, !dbg !2263
  %16 = load i64, i64* %6, align 8, !dbg !2264
  %17 = getelementptr inbounds i8, i8* %15, i64 %16, !dbg !2263
  call void @"?assign@?$_Narrow_char_traits@DH@std@@SAXAEADAEBD@Z"(i8* nonnull align 1 dereferenceable(1) %17, i8* nonnull align 1 dereferenceable(1) %9) #11, !dbg !2265
  ret void, !dbg !2266
}

; Function Attrs: noinline nounwind optnone uwtable
define linkonce_odr dso_local void @"??$_Construct_in_place@PEADAEBQEAD@std@@YAXAEAPEADAEBQEAD@Z"(i8** nonnull align 8 dereferenceable(8) %0, i8** nonnull align 8 dereferenceable(8) %1) #3 comdat !dbg !2267 {
  %3 = alloca i8**, align 8
  %4 = alloca i8**, align 8
  store i8** %1, i8*** %3, align 8
  call void @llvm.dbg.declare(metadata i8*** %3, metadata !2275, metadata !DIExpression()), !dbg !2276
  store i8** %0, i8*** %4, align 8
  call void @llvm.dbg.declare(metadata i8*** %4, metadata !2277, metadata !DIExpression()), !dbg !2278
  %5 = load i8**, i8*** %4, align 8, !dbg !2279
  %6 = call i8** @"??$addressof@PEAD@std@@YAPEAPEADAEAPEAD@Z"(i8** nonnull align 8 dereferenceable(8) %5) #11, !dbg !2280
  %7 = bitcast i8** %6 to i8*, !dbg !2280
  %8 = bitcast i8* %7 to i8**, !dbg !2281
  %9 = load i8**, i8*** %3, align 8, !dbg !2282
  %10 = call nonnull align 8 dereferenceable(8) i8** @"??$forward@AEBQEAD@std@@YAAEBQEADAEBQEAD@Z"(i8** nonnull align 8 dereferenceable(8) %9) #11, !dbg !2283
  %11 = load i8*, i8** %10, align 8, !dbg !2283
  store i8* %11, i8** %8, align 8, !dbg !2281
  ret void, !dbg !2284
}

; Function Attrs: noinline nounwind optnone uwtable
define linkonce_odr dso_local i64 @"?max_size@?$_Default_allocator_traits@V?$allocator@D@std@@@std@@SA_KAEBV?$allocator@D@2@@Z"(%"class.std::allocator"* nonnull align 1 dereferenceable(1) %0) #3 comdat align 2 !dbg !2285 {
  %2 = alloca %"class.std::allocator"*, align 8
  store %"class.std::allocator"* %0, %"class.std::allocator"** %2, align 8
  call void @llvm.dbg.declare(metadata %"class.std::allocator"** %2, metadata !2286, metadata !DIExpression()), !dbg !2287
  ret i64 -1, !dbg !2288
}

; Function Attrs: noinline nounwind optnone uwtable
define linkonce_odr dso_local nonnull align 1 dereferenceable(1) %"class.std::allocator"* @"?_Getal@?$basic_string@DU?$char_traits@D@std@@V?$allocator@D@2@@std@@AEBAAEBV?$allocator@D@2@XZ"(%"class.std::basic_string"* %0) #3 comdat align 2 !dbg !2289 {
  %2 = alloca %"class.std::basic_string"*, align 8
  store %"class.std::basic_string"* %0, %"class.std::basic_string"** %2, align 8
  call void @llvm.dbg.declare(metadata %"class.std::basic_string"** %2, metadata !2290, metadata !DIExpression()), !dbg !2291
  %3 = load %"class.std::basic_string"*, %"class.std::basic_string"** %2, align 8
  %4 = getelementptr inbounds %"class.std::basic_string", %"class.std::basic_string"* %3, i32 0, i32 0, !dbg !2292
  %5 = call nonnull align 1 dereferenceable(1) %"class.std::allocator"* @"?_Get_first@?$_Compressed_pair@V?$allocator@D@std@@V?$_String_val@U?$_Simple_types@D@std@@@2@$00@std@@QEBAAEBV?$allocator@D@2@XZ"(%"class.std::_Compressed_pair"* %4) #11, !dbg !2293
  ret %"class.std::allocator"* %5, !dbg !2294
}

; Function Attrs: noinline nounwind optnone uwtable
define linkonce_odr dso_local nonnull align 8 dereferenceable(8) i64* @"??$max@_K@std@@YAAEB_KAEB_K0@Z"(i64* nonnull align 8 dereferenceable(8) %0, i64* nonnull align 8 dereferenceable(8) %1) #3 comdat !dbg !2295 {
  %3 = alloca i64*, align 8
  %4 = alloca i64*, align 8
  store i64* %1, i64** %3, align 8
  call void @llvm.dbg.declare(metadata i64** %3, metadata !2302, metadata !DIExpression()), !dbg !2303
  store i64* %0, i64** %4, align 8
  call void @llvm.dbg.declare(metadata i64** %4, metadata !2304, metadata !DIExpression()), !dbg !2305
  %5 = load i64*, i64** %4, align 8, !dbg !2306
  %6 = load i64, i64* %5, align 8, !dbg !2306
  %7 = load i64*, i64** %3, align 8, !dbg !2307
  %8 = load i64, i64* %7, align 8, !dbg !2307
  %9 = icmp ult i64 %6, %8, !dbg !2308
  br i1 %9, label %10, label %12, !dbg !2306

10:                                               ; preds = %2
  %11 = load i64*, i64** %3, align 8, !dbg !2309
  br label %14, !dbg !2306

12:                                               ; preds = %2
  %13 = load i64*, i64** %4, align 8, !dbg !2310
  br label %14, !dbg !2306

14:                                               ; preds = %12, %10
  %15 = phi i64* [ %11, %10 ], [ %13, %12 ], !dbg !2306
  ret i64* %15, !dbg !2311
}

; Function Attrs: noinline nounwind optnone uwtable
define linkonce_odr dso_local nonnull align 8 dereferenceable(8) i64* @"??$min@_K@std@@YAAEB_KAEB_K0@Z"(i64* nonnull align 8 dereferenceable(8) %0, i64* nonnull align 8 dereferenceable(8) %1) #3 comdat !dbg !2312 {
  %3 = alloca i64*, align 8
  %4 = alloca i64*, align 8
  store i64* %1, i64** %3, align 8
  call void @llvm.dbg.declare(metadata i64** %3, metadata !2313, metadata !DIExpression()), !dbg !2314
  store i64* %0, i64** %4, align 8
  call void @llvm.dbg.declare(metadata i64** %4, metadata !2315, metadata !DIExpression()), !dbg !2316
  %5 = load i64*, i64** %3, align 8, !dbg !2317
  %6 = load i64, i64* %5, align 8, !dbg !2317
  %7 = load i64*, i64** %4, align 8, !dbg !2318
  %8 = load i64, i64* %7, align 8, !dbg !2318
  %9 = icmp ult i64 %6, %8, !dbg !2319
  br i1 %9, label %10, label %12, !dbg !2317

10:                                               ; preds = %2
  %11 = load i64*, i64** %3, align 8, !dbg !2320
  br label %14, !dbg !2317

12:                                               ; preds = %2
  %13 = load i64*, i64** %4, align 8, !dbg !2321
  br label %14, !dbg !2317

14:                                               ; preds = %12, %10
  %15 = phi i64* [ %11, %10 ], [ %13, %12 ], !dbg !2317
  ret i64* %15, !dbg !2322
}

; Function Attrs: noinline nounwind optnone uwtable
define linkonce_odr dso_local i64 @"?max@?$numeric_limits@_J@std@@SA_JXZ"() #3 comdat align 2 !dbg !2323 {
  ret i64 9223372036854775807, !dbg !2378
}

; Function Attrs: noinline nounwind optnone uwtable
define linkonce_odr dso_local nonnull align 1 dereferenceable(1) %"class.std::allocator"* @"?_Get_first@?$_Compressed_pair@V?$allocator@D@std@@V?$_String_val@U?$_Simple_types@D@std@@@2@$00@std@@QEBAAEBV?$allocator@D@2@XZ"(%"class.std::_Compressed_pair"* %0) #3 comdat align 2 !dbg !2379 {
  %2 = alloca %"class.std::_Compressed_pair"*, align 8
  store %"class.std::_Compressed_pair"* %0, %"class.std::_Compressed_pair"** %2, align 8
  call void @llvm.dbg.declare(metadata %"class.std::_Compressed_pair"** %2, metadata !2380, metadata !DIExpression()), !dbg !2382
  %3 = load %"class.std::_Compressed_pair"*, %"class.std::_Compressed_pair"** %2, align 8
  %4 = bitcast %"class.std::_Compressed_pair"* %3 to %"class.std::allocator"*, !dbg !2383
  ret %"class.std::allocator"* %4, !dbg !2384
}

; Function Attrs: noreturn
declare dso_local void @"?_Xlength_error@std@@YAXPEBD@Z"(i8*) #5

; Function Attrs: noinline nounwind optnone uwtable
define linkonce_odr dso_local i64 @"?_Calculate_growth@?$basic_string@DU?$char_traits@D@std@@V?$allocator@D@2@@std@@CA_K_K00@Z"(i64 %0, i64 %1, i64 %2) #3 comdat align 2 !dbg !2385 {
  %4 = alloca i64, align 8
  %5 = alloca i64, align 8
  %6 = alloca i64, align 8
  %7 = alloca i64, align 8
  %8 = alloca i64, align 8
  %9 = alloca i64, align 8
  store i64 %2, i64* %5, align 8
  call void @llvm.dbg.declare(metadata i64* %5, metadata !2386, metadata !DIExpression()), !dbg !2387
  store i64 %1, i64* %6, align 8
  call void @llvm.dbg.declare(metadata i64* %6, metadata !2388, metadata !DIExpression()), !dbg !2389
  store i64 %0, i64* %7, align 8
  call void @llvm.dbg.declare(metadata i64* %7, metadata !2390, metadata !DIExpression()), !dbg !2391
  call void @llvm.dbg.declare(metadata i64* %8, metadata !2392, metadata !DIExpression()), !dbg !2393
  %10 = load i64, i64* %7, align 8, !dbg !2394
  %11 = or i64 %10, 15, !dbg !2395
  store i64 %11, i64* %8, align 8, !dbg !2393
  %12 = load i64, i64* %8, align 8, !dbg !2396
  %13 = load i64, i64* %5, align 8, !dbg !2398
  %14 = icmp ugt i64 %12, %13, !dbg !2399
  br i1 %14, label %15, label %17, !dbg !2400

15:                                               ; preds = %3
  %16 = load i64, i64* %5, align 8, !dbg !2401
  store i64 %16, i64* %4, align 8, !dbg !2403
  br label %33, !dbg !2403

17:                                               ; preds = %3
  %18 = load i64, i64* %6, align 8, !dbg !2404
  %19 = load i64, i64* %5, align 8, !dbg !2406
  %20 = load i64, i64* %6, align 8, !dbg !2407
  %21 = udiv i64 %20, 2, !dbg !2408
  %22 = sub i64 %19, %21, !dbg !2409
  %23 = icmp ugt i64 %18, %22, !dbg !2410
  br i1 %23, label %24, label %26, !dbg !2411

24:                                               ; preds = %17
  %25 = load i64, i64* %5, align 8, !dbg !2412
  store i64 %25, i64* %4, align 8, !dbg !2414
  br label %33, !dbg !2414

26:                                               ; preds = %17
  %27 = load i64, i64* %6, align 8, !dbg !2415
  %28 = load i64, i64* %6, align 8, !dbg !2416
  %29 = udiv i64 %28, 2, !dbg !2417
  %30 = add i64 %27, %29, !dbg !2418
  store i64 %30, i64* %9, align 8, !dbg !2415
  %31 = call nonnull align 8 dereferenceable(8) i64* @"??$max@_K@std@@YAAEB_KAEB_K0@Z"(i64* nonnull align 8 dereferenceable(8) %8, i64* nonnull align 8 dereferenceable(8) %9) #11, !dbg !2419
  %32 = load i64, i64* %31, align 8, !dbg !2419
  store i64 %32, i64* %4, align 8, !dbg !2420
  br label %33, !dbg !2420

33:                                               ; preds = %26, %24, %15
  %34 = load i64, i64* %4, align 8, !dbg !2421
  ret i64 %34, !dbg !2421
}

; Function Attrs: noinline optnone uwtable
define linkonce_odr dso_local i8* @"??$_Allocate@$0BA@U_Default_allocate_traits@std@@$0A@@std@@YAPEAX_K@Z"(i64 %0) #0 comdat !dbg !2422 {
  %2 = alloca i8*, align 8
  %3 = alloca i64, align 8
  store i64 %0, i64* %3, align 8
  call void @llvm.dbg.declare(metadata i64* %3, metadata !2430, metadata !DIExpression()), !dbg !2431
  %4 = load i64, i64* %3, align 8, !dbg !2432
  %5 = icmp uge i64 %4, 4096, !dbg !2434
  br i1 %5, label %6, label %9, !dbg !2435

6:                                                ; preds = %1
  %7 = load i64, i64* %3, align 8, !dbg !2436
  %8 = call i8* @"??$_Allocate_manually_vector_aligned@U_Default_allocate_traits@std@@@std@@YAPEAX_K@Z"(i64 %7), !dbg !2438, !heapallocsite !116
  store i8* %8, i8** %2, align 8, !dbg !2439
  br label %16, !dbg !2439

9:                                                ; preds = %1
  %10 = load i64, i64* %3, align 8, !dbg !2440
  %11 = icmp ne i64 %10, 0, !dbg !2442
  br i1 %11, label %12, label %15, !dbg !2443

12:                                               ; preds = %9
  %13 = load i64, i64* %3, align 8, !dbg !2444
  %14 = call i8* @"?_Allocate@_Default_allocate_traits@std@@SAPEAX_K@Z"(i64 %13), !dbg !2446, !heapallocsite !116
  store i8* %14, i8** %2, align 8, !dbg !2447
  br label %16, !dbg !2447

15:                                               ; preds = %9
  store i8* null, i8** %2, align 8, !dbg !2448
  br label %16, !dbg !2448

16:                                               ; preds = %15, %12, %6
  %17 = load i8*, i8** %2, align 8, !dbg !2449
  ret i8* %17, !dbg !2449
}

; Function Attrs: noinline optnone uwtable
define linkonce_odr dso_local i64 @"??$_Get_size_of_n@$00@std@@YA_K_K@Z"(i64 %0) #0 comdat !dbg !2450 {
  %2 = alloca i64, align 8
  %3 = alloca i8, align 1
  store i64 %0, i64* %2, align 8
  call void @llvm.dbg.declare(metadata i64* %2, metadata !2453, metadata !DIExpression()), !dbg !2454
  call void @llvm.dbg.declare(metadata i8* %3, metadata !2455, metadata !DIExpression()), !dbg !2456
  store i8 0, i8* %3, align 1, !dbg !2456
  %4 = load i64, i64* %2, align 8, !dbg !2457
  %5 = mul i64 %4, 1, !dbg !2458
  ret i64 %5, !dbg !2459
}

; Function Attrs: noinline optnone uwtable
define linkonce_odr dso_local i8* @"??$_Allocate_manually_vector_aligned@U_Default_allocate_traits@std@@@std@@YAPEAX_K@Z"(i64 %0) #0 comdat !dbg !2460 {
  %2 = alloca i64, align 8
  %3 = alloca i64, align 8
  %4 = alloca i64, align 8
  %5 = alloca i8*, align 8
  store i64 %0, i64* %2, align 8
  call void @llvm.dbg.declare(metadata i64* %2, metadata !2463, metadata !DIExpression()), !dbg !2464
  call void @llvm.dbg.declare(metadata i64* %3, metadata !2465, metadata !DIExpression()), !dbg !2466
  %6 = load i64, i64* %2, align 8, !dbg !2467
  %7 = add i64 39, %6, !dbg !2468
  store i64 %7, i64* %3, align 8, !dbg !2466
  %8 = load i64, i64* %3, align 8, !dbg !2469
  %9 = load i64, i64* %2, align 8, !dbg !2471
  %10 = icmp ule i64 %8, %9, !dbg !2472
  br i1 %10, label %11, label %12, !dbg !2473

11:                                               ; preds = %1
  call void @"?_Throw_bad_array_new_length@std@@YAXXZ"() #13, !dbg !2474
  unreachable, !dbg !2474

12:                                               ; preds = %1
  call void @llvm.dbg.declare(metadata i64* %4, metadata !2476, metadata !DIExpression()), !dbg !2477
  %13 = load i64, i64* %3, align 8, !dbg !2478
  %14 = call i8* @"?_Allocate@_Default_allocate_traits@std@@SAPEAX_K@Z"(i64 %13), !dbg !2479, !heapallocsite !116
  %15 = ptrtoint i8* %14 to i64, !dbg !2480
  store i64 %15, i64* %4, align 8, !dbg !2477
  br label %16, !dbg !2481

16:                                               ; preds = %12
  %17 = load i64, i64* %4, align 8, !dbg !2482
  %18 = icmp ne i64 %17, 0, !dbg !2482
  br i1 %18, label %19, label %20, !dbg !2485

19:                                               ; preds = %16
  br label %23, !dbg !2486

20:                                               ; preds = %16
  br label %21, !dbg !2488

21:                                               ; preds = %20
  call void @_invalid_parameter_noinfo_noreturn() #13, !dbg !2490
  unreachable, !dbg !2490

22:                                               ; No predecessors!
  br label %23

23:                                               ; preds = %22, %19
  br label %24, !dbg !2485

24:                                               ; preds = %23
  call void @llvm.dbg.declare(metadata i8** %5, metadata !2492, metadata !DIExpression()), !dbg !2494
  %25 = load i64, i64* %4, align 8, !dbg !2495
  %26 = add i64 %25, 39, !dbg !2496
  %27 = and i64 %26, -32, !dbg !2497
  %28 = inttoptr i64 %27 to i8*, !dbg !2498
  store i8* %28, i8** %5, align 8, !dbg !2494
  %29 = load i64, i64* %4, align 8, !dbg !2499
  %30 = load i8*, i8** %5, align 8, !dbg !2500
  %31 = bitcast i8* %30 to i64*, !dbg !2501
  %32 = getelementptr inbounds i64, i64* %31, i64 -1, !dbg !2501
  store i64 %29, i64* %32, align 8, !dbg !2502
  %33 = load i8*, i8** %5, align 8, !dbg !2503
  ret i8* %33, !dbg !2504
}

; Function Attrs: noinline optnone uwtable
define linkonce_odr dso_local i8* @"?_Allocate@_Default_allocate_traits@std@@SAPEAX_K@Z"(i64 %0) #0 comdat align 2 !dbg !2505 {
  %2 = alloca i64, align 8
  store i64 %0, i64* %2, align 8
  call void @llvm.dbg.declare(metadata i64* %2, metadata !2506, metadata !DIExpression()), !dbg !2507
  %3 = load i64, i64* %2, align 8, !dbg !2508
  %4 = call noalias nonnull i8* @"??2@YAPEAX_K@Z"(i64 %3) #14, !dbg !2509, !heapallocsite !116
  ret i8* %4, !dbg !2510
}

; Function Attrs: noinline noreturn optnone uwtable
define linkonce_odr dso_local void @"?_Throw_bad_array_new_length@std@@YAXXZ"() #7 comdat !dbg !2511 {
  %1 = alloca %"class.std::bad_array_new_length", align 8
  %2 = call %"class.std::bad_array_new_length"* @"??0bad_array_new_length@std@@QEAA@XZ"(%"class.std::bad_array_new_length"* %1) #11, !dbg !2512
  %3 = bitcast %"class.std::bad_array_new_length"* %1 to i8*, !dbg !2512
  call void @_CxxThrowException(i8* %3, %eh.ThrowInfo* @"_TI3?AVbad_array_new_length@std@@") #13, !dbg !2512
  unreachable, !dbg !2512
}

; Function Attrs: noinline nounwind optnone uwtable
define linkonce_odr dso_local %"class.std::bad_array_new_length"* @"??0bad_array_new_length@std@@QEAA@XZ"(%"class.std::bad_array_new_length"* returned %0) unnamed_addr #3 comdat align 2 !dbg !2513 {
  %2 = alloca %"class.std::bad_array_new_length"*, align 8
  store %"class.std::bad_array_new_length"* %0, %"class.std::bad_array_new_length"** %2, align 8
  call void @llvm.dbg.declare(metadata %"class.std::bad_array_new_length"** %2, metadata !2566, metadata !DIExpression()), !dbg !2568
  %3 = load %"class.std::bad_array_new_length"*, %"class.std::bad_array_new_length"** %2, align 8
  %4 = bitcast %"class.std::bad_array_new_length"* %3 to %"class.std::bad_alloc"*, !dbg !2569
  %5 = call %"class.std::bad_alloc"* @"??0bad_alloc@std@@AEAA@QEBD@Z"(%"class.std::bad_alloc"* %4, i8* getelementptr inbounds ([21 x i8], [21 x i8]* @"??_C@_0BF@KINCDENJ@bad?5array?5new?5length?$AA@", i64 0, i64 0)) #11, !dbg !2570
  %6 = bitcast %"class.std::bad_array_new_length"* %3 to i32 (...)***, !dbg !2569
  store i32 (...)** bitcast (i8** @"??_7bad_array_new_length@std@@6B@" to i32 (...)**), i32 (...)*** %6, align 8, !dbg !2569
  ret %"class.std::bad_array_new_length"* %3, !dbg !2571
}

; Function Attrs: noinline nounwind optnone uwtable
define linkonce_odr dso_local %"class.std::bad_array_new_length"* @"??0bad_array_new_length@std@@QEAA@AEBV01@@Z"(%"class.std::bad_array_new_length"* returned %0, %"class.std::bad_array_new_length"* nonnull align 8 dereferenceable(24) %1) unnamed_addr #3 comdat align 2 !dbg !2572 {
  %3 = alloca %"class.std::bad_array_new_length"*, align 8
  %4 = alloca %"class.std::bad_array_new_length"*, align 8
  store %"class.std::bad_array_new_length"* %1, %"class.std::bad_array_new_length"** %3, align 8
  call void @llvm.dbg.declare(metadata %"class.std::bad_array_new_length"** %3, metadata !2578, metadata !DIExpression()), !dbg !2579
  store %"class.std::bad_array_new_length"* %0, %"class.std::bad_array_new_length"** %4, align 8
  call void @llvm.dbg.declare(metadata %"class.std::bad_array_new_length"** %4, metadata !2580, metadata !DIExpression()), !dbg !2579
  %5 = load %"class.std::bad_array_new_length"*, %"class.std::bad_array_new_length"** %4, align 8
  %6 = bitcast %"class.std::bad_array_new_length"* %5 to %"class.std::bad_alloc"*, !dbg !2581
  %7 = load %"class.std::bad_array_new_length"*, %"class.std::bad_array_new_length"** %3, align 8, !dbg !2581
  %8 = bitcast %"class.std::bad_array_new_length"* %7 to %"class.std::bad_alloc"*, !dbg !2581
  %9 = call %"class.std::bad_alloc"* @"??0bad_alloc@std@@QEAA@AEBV01@@Z"(%"class.std::bad_alloc"* %6, %"class.std::bad_alloc"* nonnull align 8 dereferenceable(24) %8) #11, !dbg !2581
  %10 = bitcast %"class.std::bad_array_new_length"* %5 to i32 (...)***, !dbg !2581
  store i32 (...)** bitcast (i8** @"??_7bad_array_new_length@std@@6B@" to i32 (...)**), i32 (...)*** %10, align 8, !dbg !2581
  ret %"class.std::bad_array_new_length"* %5, !dbg !2581
}

; Function Attrs: noinline nounwind optnone uwtable
define linkonce_odr dso_local %"class.std::bad_alloc"* @"??0bad_alloc@std@@QEAA@AEBV01@@Z"(%"class.std::bad_alloc"* returned %0, %"class.std::bad_alloc"* nonnull align 8 dereferenceable(24) %1) unnamed_addr #3 comdat align 2 !dbg !2582 {
  %3 = alloca %"class.std::bad_alloc"*, align 8
  %4 = alloca %"class.std::bad_alloc"*, align 8
  store %"class.std::bad_alloc"* %1, %"class.std::bad_alloc"** %3, align 8
  call void @llvm.dbg.declare(metadata %"class.std::bad_alloc"** %3, metadata !2588, metadata !DIExpression()), !dbg !2589
  store %"class.std::bad_alloc"* %0, %"class.std::bad_alloc"** %4, align 8
  call void @llvm.dbg.declare(metadata %"class.std::bad_alloc"** %4, metadata !2590, metadata !DIExpression()), !dbg !2589
  %5 = load %"class.std::bad_alloc"*, %"class.std::bad_alloc"** %4, align 8
  %6 = bitcast %"class.std::bad_alloc"* %5 to %"class.std::exception"*, !dbg !2592
  %7 = load %"class.std::bad_alloc"*, %"class.std::bad_alloc"** %3, align 8, !dbg !2592
  %8 = bitcast %"class.std::bad_alloc"* %7 to %"class.std::exception"*, !dbg !2592
  %9 = call %"class.std::exception"* @"??0exception@std@@QEAA@AEBV01@@Z"(%"class.std::exception"* %6, %"class.std::exception"* nonnull align 8 dereferenceable(24) %8) #11, !dbg !2592
  %10 = bitcast %"class.std::bad_alloc"* %5 to i32 (...)***, !dbg !2592
  store i32 (...)** bitcast (i8** @"??_7bad_alloc@std@@6B@" to i32 (...)**), i32 (...)*** %10, align 8, !dbg !2592
  ret %"class.std::bad_alloc"* %5, !dbg !2592
}

; Function Attrs: noinline nounwind optnone uwtable
define linkonce_odr dso_local %"class.std::exception"* @"??0exception@std@@QEAA@AEBV01@@Z"(%"class.std::exception"* returned %0, %"class.std::exception"* nonnull align 8 dereferenceable(24) %1) unnamed_addr #3 comdat align 2 personality i8* bitcast (i32 (...)* @__CxxFrameHandler3 to i8*) !dbg !2593 {
  %3 = alloca %"class.std::exception"*, align 8
  %4 = alloca %"class.std::exception"*, align 8
  store %"class.std::exception"* %1, %"class.std::exception"** %3, align 8
  call void @llvm.dbg.declare(metadata %"class.std::exception"** %3, metadata !2594, metadata !DIExpression()), !dbg !2595
  store %"class.std::exception"* %0, %"class.std::exception"** %4, align 8
  call void @llvm.dbg.declare(metadata %"class.std::exception"** %4, metadata !2596, metadata !DIExpression()), !dbg !2598
  %5 = load %"class.std::exception"*, %"class.std::exception"** %4, align 8
  %6 = bitcast %"class.std::exception"* %5 to i32 (...)***, !dbg !2599
  store i32 (...)** bitcast (i8** @"??_7exception@std@@6B@" to i32 (...)**), i32 (...)*** %6, align 8, !dbg !2599
  %7 = getelementptr inbounds %"class.std::exception", %"class.std::exception"* %5, i32 0, i32 1, !dbg !2600
  %8 = bitcast %struct.__std_exception_data* %7 to i8*, !dbg !2600
  call void @llvm.memset.p0i8.i64(i8* align 8 %8, i8 0, i64 16, i1 false), !dbg !2600
  %9 = getelementptr inbounds %"class.std::exception", %"class.std::exception"* %5, i32 0, i32 1, !dbg !2601
  %10 = load %"class.std::exception"*, %"class.std::exception"** %3, align 8, !dbg !2603
  %11 = getelementptr inbounds %"class.std::exception", %"class.std::exception"* %10, i32 0, i32 1, !dbg !2604
  invoke void @__std_exception_copy(%struct.__std_exception_data* %11, %struct.__std_exception_data* %9)
          to label %12 unwind label %13, !dbg !2605

12:                                               ; preds = %2
  ret %"class.std::exception"* %5, !dbg !2606

13:                                               ; preds = %2
  %14 = cleanuppad within none [], !dbg !2605
  call void @__std_terminate() #12 [ "funclet"(token %14) ], !dbg !2605
  unreachable, !dbg !2605
}

; Function Attrs: noinline nounwind optnone uwtable
define linkonce_odr dso_local void @"??1bad_array_new_length@std@@UEAA@XZ"(%"class.std::bad_array_new_length"* %0) unnamed_addr #3 comdat align 2 personality i8* bitcast (i32 (...)* @__CxxFrameHandler3 to i8*) !dbg !2607 {
  %2 = alloca %"class.std::bad_array_new_length"*, align 8
  store %"class.std::bad_array_new_length"* %0, %"class.std::bad_array_new_length"** %2, align 8
  call void @llvm.dbg.declare(metadata %"class.std::bad_array_new_length"** %2, metadata !2609, metadata !DIExpression()), !dbg !2610
  %3 = load %"class.std::bad_array_new_length"*, %"class.std::bad_array_new_length"** %2, align 8
  invoke void @fsf()
          to label %4 unwind label <badref>, !dbg !2611

4:                                                ; preds = %1
  %5 = bitcast %"class.std::bad_array_new_length"* %3 to %"class.std::bad_alloc"*, !dbg !2611
  call void @"??1bad_alloc@std@@UEAA@XZ"(%"class.std::bad_alloc"* %5) #11, !dbg !2611
  ret void, !dbg !2613
}

declare dso_local void @_CxxThrowException(i8*, %eh.ThrowInfo*)

; Function Attrs: noinline nounwind optnone uwtable
define linkonce_odr dso_local %"class.std::bad_alloc"* @"??0bad_alloc@std@@AEAA@QEBD@Z"(%"class.std::bad_alloc"* returned %0, i8* %1) unnamed_addr #3 comdat align 2 !dbg !2614 {
  %3 = alloca i8*, align 8
  %4 = alloca %"class.std::bad_alloc"*, align 8
  store i8* %1, i8** %3, align 8
  call void @llvm.dbg.declare(metadata i8** %3, metadata !2615, metadata !DIExpression()), !dbg !2616
  store %"class.std::bad_alloc"* %0, %"class.std::bad_alloc"** %4, align 8
  call void @llvm.dbg.declare(metadata %"class.std::bad_alloc"** %4, metadata !2617, metadata !DIExpression()), !dbg !2618
  %5 = load %"class.std::bad_alloc"*, %"class.std::bad_alloc"** %4, align 8
  %6 = bitcast %"class.std::bad_alloc"* %5 to %"class.std::exception"*, !dbg !2619
  %7 = load i8*, i8** %3, align 8, !dbg !2620
  %8 = call %"class.std::exception"* @"??0exception@std@@QEAA@QEBDH@Z"(%"class.std::exception"* %6, i8* %7, i32 1) #11, !dbg !2621
  %9 = bitcast %"class.std::bad_alloc"* %5 to i32 (...)***, !dbg !2619
  store i32 (...)** bitcast (i8** @"??_7bad_alloc@std@@6B@" to i32 (...)**), i32 (...)*** %9, align 8, !dbg !2619
  ret %"class.std::bad_alloc"* %5, !dbg !2622
}

; Function Attrs: noinline nounwind optnone uwtable
define linkonce_odr dso_local i8* @"??_Gbad_array_new_length@std@@UEAAPEAXI@Z"(%"class.std::bad_array_new_length"* %0, i32 %1) unnamed_addr #3 comdat align 2 personality i8* bitcast (i32 (...)* @__CxxFrameHandler3 to i8*) !dbg !2623 {
  %3 = alloca i8*, align 8
  %4 = alloca i32, align 4
  %5 = alloca %"class.std::bad_array_new_length"*, align 8
  store i32 %1, i32* %4, align 4
  call void @llvm.dbg.declare(metadata i32* %4, metadata !2624, metadata !DIExpression()), !dbg !2625
  store %"class.std::bad_array_new_length"* %0, %"class.std::bad_array_new_length"** %5, align 8
  call void @llvm.dbg.declare(metadata %"class.std::bad_array_new_length"** %5, metadata !2626, metadata !DIExpression()), !dbg !2625
  %6 = load %"class.std::bad_array_new_length"*, %"class.std::bad_array_new_length"** %5, align 8
  %7 = bitcast %"class.std::bad_array_new_length"* %6 to i8*
  store i8* %7, i8** %3, align 8
  %8 = load i32, i32* %4, align 4
  call void @"??1bad_array_new_length@std@@UEAA@XZ"(%"class.std::bad_array_new_length"* %6) #11, !dbg !2627
  invoke void @fsf()
          to label %9 unwind label <badref>, !dbg !2627

9:                                                ; preds = %2
  %10 = icmp eq i32 %8, 0, !dbg !2627
  br i1 %10, label %13, label %11, !dbg !2627

11:                                               ; preds = %9
  %12 = bitcast %"class.std::bad_array_new_length"* %6 to i8*, !dbg !2627
  call void @"??3@YAXPEAX@Z"(i8* %12) #15, !dbg !2627
  br label %13, !dbg !2627

13:                                               ; preds = %11, %9
  %14 = load i8*, i8** %3, align 8, !dbg !2627
  ret i8* %14, !dbg !2627
}

; Function Attrs: noinline optnone uwtable
define linkonce_odr dso_local i8* @"?what@exception@std@@UEBAPEBDXZ"(%"class.std::exception"* %0) unnamed_addr #0 comdat align 2 !dbg !2628 {
  %2 = alloca %"class.std::exception"*, align 8
  store %"class.std::exception"* %0, %"class.std::exception"** %2, align 8
  call void @llvm.dbg.declare(metadata %"class.std::exception"** %2, metadata !2629, metadata !DIExpression()), !dbg !2631
  %3 = load %"class.std::exception"*, %"class.std::exception"** %2, align 8
  %4 = getelementptr inbounds %"class.std::exception", %"class.std::exception"* %3, i32 0, i32 1, !dbg !2632
  %5 = getelementptr inbounds %struct.__std_exception_data, %struct.__std_exception_data* %4, i32 0, i32 0, !dbg !2633
  %6 = load i8*, i8** %5, align 8, !dbg !2633
  %7 = icmp ne i8* %6, null, !dbg !2632
  br i1 %7, label %8, label %12, !dbg !2632

8:                                                ; preds = %1
  %9 = getelementptr inbounds %"class.std::exception", %"class.std::exception"* %3, i32 0, i32 1, !dbg !2634
  %10 = getelementptr inbounds %struct.__std_exception_data, %struct.__std_exception_data* %9, i32 0, i32 0, !dbg !2635
  %11 = load i8*, i8** %10, align 8, !dbg !2635
  br label %13, !dbg !2632

12:                                               ; preds = %1
  br label %13, !dbg !2632

13:                                               ; preds = %12, %8
  %14 = phi i8* [ %11, %8 ], [ getelementptr inbounds ([18 x i8], [18 x i8]* @"??_C@_0BC@EOODALEL@Unknown?5exception?$AA@", i64 0, i64 0), %12 ], !dbg !2632
  ret i8* %14, !dbg !2636
}

; Function Attrs: noinline nounwind optnone uwtable
define linkonce_odr dso_local %"class.std::exception"* @"??0exception@std@@QEAA@QEBDH@Z"(%"class.std::exception"* returned %0, i8* %1, i32 %2) unnamed_addr #3 comdat align 2 !dbg !2637 {
  %4 = alloca i32, align 4
  %5 = alloca i8*, align 8
  %6 = alloca %"class.std::exception"*, align 8
  store i32 %2, i32* %4, align 4
  call void @llvm.dbg.declare(metadata i32* %4, metadata !2638, metadata !DIExpression()), !dbg !2639
  store i8* %1, i8** %5, align 8
  call void @llvm.dbg.declare(metadata i8** %5, metadata !2640, metadata !DIExpression()), !dbg !2641
  store %"class.std::exception"* %0, %"class.std::exception"** %6, align 8
  call void @llvm.dbg.declare(metadata %"class.std::exception"** %6, metadata !2642, metadata !DIExpression()), !dbg !2643
  %7 = load %"class.std::exception"*, %"class.std::exception"** %6, align 8
  %8 = bitcast %"class.std::exception"* %7 to i32 (...)***, !dbg !2644
  store i32 (...)** bitcast (i8** @"??_7exception@std@@6B@" to i32 (...)**), i32 (...)*** %8, align 8, !dbg !2644
  %9 = getelementptr inbounds %"class.std::exception", %"class.std::exception"* %7, i32 0, i32 1, !dbg !2645
  %10 = bitcast %struct.__std_exception_data* %9 to i8*, !dbg !2645
  call void @llvm.memset.p0i8.i64(i8* align 8 %10, i8 0, i64 16, i1 false), !dbg !2645
  %11 = load i8*, i8** %5, align 8, !dbg !2646
  %12 = getelementptr inbounds %"class.std::exception", %"class.std::exception"* %7, i32 0, i32 1, !dbg !2648
  %13 = getelementptr inbounds %struct.__std_exception_data, %struct.__std_exception_data* %12, i32 0, i32 0, !dbg !2649
  store i8* %11, i8** %13, align 8, !dbg !2650
  ret %"class.std::exception"* %7, !dbg !2651
}

; Function Attrs: noinline nounwind optnone uwtable
define linkonce_odr dso_local i8* @"??_Gbad_alloc@std@@UEAAPEAXI@Z"(%"class.std::bad_alloc"* %0, i32 %1) unnamed_addr #3 comdat align 2 personality i8* bitcast (i32 (...)* @__CxxFrameHandler3 to i8*) !dbg !2652 {
  %3 = alloca i8*, align 8
  %4 = alloca i32, align 4
  %5 = alloca %"class.std::bad_alloc"*, align 8
  store i32 %1, i32* %4, align 4
  call void @llvm.dbg.declare(metadata i32* %4, metadata !2654, metadata !DIExpression()), !dbg !2655
  store %"class.std::bad_alloc"* %0, %"class.std::bad_alloc"** %5, align 8
  call void @llvm.dbg.declare(metadata %"class.std::bad_alloc"** %5, metadata !2656, metadata !DIExpression()), !dbg !2655
  %6 = load %"class.std::bad_alloc"*, %"class.std::bad_alloc"** %5, align 8
  %7 = bitcast %"class.std::bad_alloc"* %6 to i8*
  store i8* %7, i8** %3, align 8
  %8 = load i32, i32* %4, align 4
  call void @"??1bad_alloc@std@@UEAA@XZ"(%"class.std::bad_alloc"* %6) #11, !dbg !2657
  invoke void @fsf()
          to label %9 unwind label <badref>, !dbg !2657

9:                                                ; preds = %2
  %10 = icmp eq i32 %8, 0, !dbg !2657
  br i1 %10, label %13, label %11, !dbg !2657

11:                                               ; preds = %9
  %12 = bitcast %"class.std::bad_alloc"* %6 to i8*, !dbg !2657
  call void @"??3@YAXPEAX@Z"(i8* %12) #15, !dbg !2657
  br label %13, !dbg !2657

13:                                               ; preds = %11, %9
  %14 = load i8*, i8** %3, align 8, !dbg !2657
  ret i8* %14, !dbg !2657
}

; Function Attrs: argmemonly nounwind willreturn writeonly
declare void @llvm.memset.p0i8.i64(i8* nocapture writeonly, i8, i64, i1 immarg) #8

; Function Attrs: noinline nounwind optnone uwtable
define linkonce_odr dso_local i8* @"??_Gexception@std@@UEAAPEAXI@Z"(%"class.std::exception"* %0, i32 %1) unnamed_addr #3 comdat align 2 personality i8* bitcast (i32 (...)* @__CxxFrameHandler3 to i8*) !dbg !2658 {
  %3 = alloca i8*, align 8
  %4 = alloca i32, align 4
  %5 = alloca %"class.std::exception"*, align 8
  store i32 %1, i32* %4, align 4
  call void @llvm.dbg.declare(metadata i32* %4, metadata !2659, metadata !DIExpression()), !dbg !2660
  store %"class.std::exception"* %0, %"class.std::exception"** %5, align 8
  call void @llvm.dbg.declare(metadata %"class.std::exception"** %5, metadata !2661, metadata !DIExpression()), !dbg !2660
  %6 = load %"class.std::exception"*, %"class.std::exception"** %5, align 8
  %7 = bitcast %"class.std::exception"* %6 to i8*
  store i8* %7, i8** %3, align 8
  %8 = load i32, i32* %4, align 4
  call void @"??1exception@std@@UEAA@XZ"(%"class.std::exception"* %6) #11, !dbg !2662
  invoke void @fsf()
          to label %9 unwind label <badref>, !dbg !2662

9:                                                ; preds = %2
  %10 = icmp eq i32 %8, 0, !dbg !2662
  br i1 %10, label %13, label %11, !dbg !2662

11:                                               ; preds = %9
  %12 = bitcast %"class.std::exception"* %6 to i8*, !dbg !2662
  call void @"??3@YAXPEAX@Z"(i8* %12) #15, !dbg !2662
  br label %13, !dbg !2662

13:                                               ; preds = %11, %9
  %14 = load i8*, i8** %3, align 8, !dbg !2663
  ret i8* %14, !dbg !2663
}

; Function Attrs: noinline nounwind optnone uwtable
define linkonce_odr dso_local void @"??1exception@std@@UEAA@XZ"(%"class.std::exception"* %0) unnamed_addr #3 comdat align 2 personality i8* bitcast (i32 (...)* @__CxxFrameHandler3 to i8*) !dbg !2664 {
  %2 = alloca %"class.std::exception"*, align 8
  store %"class.std::exception"* %0, %"class.std::exception"** %2, align 8
  call void @llvm.dbg.declare(metadata %"class.std::exception"** %2, metadata !2665, metadata !DIExpression()), !dbg !2666
  %3 = load %"class.std::exception"*, %"class.std::exception"** %2, align 8
  %4 = bitcast %"class.std::exception"* %3 to i32 (...)***, !dbg !2667
  store i32 (...)** bitcast (i8** @"??_7exception@std@@6B@" to i32 (...)**), i32 (...)*** %4, align 8, !dbg !2667
  %5 = getelementptr inbounds %"class.std::exception", %"class.std::exception"* %3, i32 0, i32 1, !dbg !2668
  invoke void @__std_exception_destroy(%struct.__std_exception_data* %5)
          to label %6 unwind label %7, !dbg !2670

6:                                                ; preds = %1
  ret void, !dbg !2671

7:                                                ; preds = %1
  %8 = cleanuppad within none [], !dbg !2670
  call void @__std_terminate() #12 [ "funclet"(token %8) ], !dbg !2670
  unreachable, !dbg !2670
}

; Function Attrs: nobuiltin nounwind
declare dso_local void @"??3@YAXPEAX@Z"(i8*) #9

declare dso_local void @__std_exception_destroy(%struct.__std_exception_data*) #2

; Function Attrs: noinline nounwind optnone uwtable
define linkonce_odr dso_local void @"??1bad_alloc@std@@UEAA@XZ"(%"class.std::bad_alloc"* %0) unnamed_addr #3 comdat align 2 personality i8* bitcast (i32 (...)* @__CxxFrameHandler3 to i8*) !dbg !2672 {
  %2 = alloca %"class.std::bad_alloc"*, align 8
  store %"class.std::bad_alloc"* %0, %"class.std::bad_alloc"** %2, align 8
  call void @llvm.dbg.declare(metadata %"class.std::bad_alloc"** %2, metadata !2673, metadata !DIExpression()), !dbg !2674
  %3 = load %"class.std::bad_alloc"*, %"class.std::bad_alloc"** %2, align 8
  invoke void @fsf()
          to label %4 unwind label <badref>, !dbg !2675

4:                                                ; preds = %1
  %5 = bitcast %"class.std::bad_alloc"* %3 to %"class.std::exception"*, !dbg !2675
  call void @"??1exception@std@@UEAA@XZ"(%"class.std::exception"* %5) #11, !dbg !2675
  ret void, !dbg !2677
}

declare dso_local void @__std_exception_copy(%struct.__std_exception_data*, %struct.__std_exception_data*) #2

; Function Attrs: nobuiltin allocsize(0)
declare dso_local nonnull i8* @"??2@YAPEAX_K@Z"(i64) #10

; Function Attrs: noinline nounwind optnone uwtable
define linkonce_odr dso_local i8* @"?copy@?$_Narrow_char_traits@DH@std@@SAPEADQEADQEBD_K@Z"(i8* %0, i8* %1, i64 %2) #3 comdat align 2 !dbg !2678 {
  %4 = alloca i64, align 8
  %5 = alloca i8*, align 8
  %6 = alloca i8*, align 8
  store i64 %2, i64* %4, align 8
  call void @llvm.dbg.declare(metadata i64* %4, metadata !2679, metadata !DIExpression()), !dbg !2680
  store i8* %1, i8** %5, align 8
  call void @llvm.dbg.declare(metadata i8** %5, metadata !2681, metadata !DIExpression()), !dbg !2682
  store i8* %0, i8** %6, align 8
  call void @llvm.dbg.declare(metadata i8** %6, metadata !2683, metadata !DIExpression()), !dbg !2684
  %7 = load i8*, i8** %6, align 8, !dbg !2685
  %8 = load i8*, i8** %5, align 8, !dbg !2686
  %9 = load i64, i64* %4, align 8, !dbg !2687
  call void @llvm.memcpy.p0i8.p0i8.i64(i8* align 1 %7, i8* align 1 %8, i64 %9, i1 false), !dbg !2688
  ret i8* %7, !dbg !2689
}

; Function Attrs: argmemonly nounwind willreturn
declare void @llvm.memcpy.p0i8.p0i8.i64(i8* noalias nocapture writeonly, i8* noalias nocapture readonly, i64, i1 immarg) #6

; Function Attrs: noinline nounwind optnone uwtable
define linkonce_odr dso_local i8** @"??$addressof@PEAD@std@@YAPEAPEADAEAPEAD@Z"(i8** nonnull align 8 dereferenceable(8) %0) #3 comdat !dbg !2690 {
  %2 = alloca i8**, align 8
  store i8** %0, i8*** %2, align 8
  call void @llvm.dbg.declare(metadata i8*** %2, metadata !2693, metadata !DIExpression()), !dbg !2694
  %3 = load i8**, i8*** %2, align 8, !dbg !2695
  ret i8** %3, !dbg !2696
}

; Function Attrs: noinline nounwind optnone uwtable
define linkonce_odr dso_local nonnull align 8 dereferenceable(8) i8** @"??$forward@AEBQEAD@std@@YAAEBQEADAEBQEAD@Z"(i8** nonnull align 8 dereferenceable(8) %0) #3 comdat !dbg !2697 {
  %2 = alloca i8**, align 8
  store i8** %0, i8*** %2, align 8
  call void @llvm.dbg.declare(metadata i8*** %2, metadata !2706, metadata !DIExpression()), !dbg !2707
  %3 = load i8**, i8*** %2, align 8, !dbg !2708
  ret i8** %3, !dbg !2709
}

declare dso_local i64 @strlen(i8*) #2

; Function Attrs: noinline optnone uwtable
define linkonce_odr dso_local zeroext i1 @"??$?8DU?$char_traits@D@std@@V?$allocator@D@1@@std@@YA_NAEBV?$basic_string@DU?$char_traits@D@std@@V?$allocator@D@2@@0@QEBD@Z"(%"class.std::basic_string"* nonnull align 8 dereferenceable(32) %0, i8* %1) #0 comdat !dbg !2710 {
  %3 = alloca i8*, align 8
  %4 = alloca %"class.std::basic_string"*, align 8
  store i8* %1, i8** %3, align 8
  call void @llvm.dbg.declare(metadata i8** %3, metadata !2711, metadata !DIExpression()), !dbg !2712
  store %"class.std::basic_string"* %0, %"class.std::basic_string"** %4, align 8
  call void @llvm.dbg.declare(metadata %"class.std::basic_string"** %4, metadata !2713, metadata !DIExpression()), !dbg !2714
  %5 = load %"class.std::basic_string"*, %"class.std::basic_string"** %4, align 8, !dbg !2715
  %6 = load i8*, i8** %3, align 8, !dbg !2716
  %7 = call zeroext i1 @"?_Equal@?$basic_string@DU?$char_traits@D@std@@V?$allocator@D@2@@std@@QEBA_NQEBD@Z"(%"class.std::basic_string"* %5, i8* %6) #11, !dbg !2717
  ret i1 %7, !dbg !2718
}

; Function Attrs: noinline nounwind optnone uwtable
define linkonce_odr dso_local zeroext i1 @"?_Equal@?$basic_string@DU?$char_traits@D@std@@V?$allocator@D@2@@std@@QEBA_NQEBD@Z"(%"class.std::basic_string"* %0, i8* %1) #3 comdat align 2 !dbg !2719 {
  %3 = alloca i8*, align 8
  %4 = alloca %"class.std::basic_string"*, align 8
  store i8* %1, i8** %3, align 8
  call void @llvm.dbg.declare(metadata i8** %3, metadata !2720, metadata !DIExpression()), !dbg !2721
  store %"class.std::basic_string"* %0, %"class.std::basic_string"** %4, align 8
  call void @llvm.dbg.declare(metadata %"class.std::basic_string"** %4, metadata !2722, metadata !DIExpression()), !dbg !2723
  %5 = load %"class.std::basic_string"*, %"class.std::basic_string"** %4, align 8
  %6 = load i8*, i8** %3, align 8, !dbg !2724
  %7 = call i64 @"?length@?$_Narrow_char_traits@DH@std@@SA_KQEBD@Z"(i8* %6) #11, !dbg !2725
  %8 = load i8*, i8** %3, align 8, !dbg !2726
  %9 = getelementptr inbounds %"class.std::basic_string", %"class.std::basic_string"* %5, i32 0, i32 0, !dbg !2727
  %10 = getelementptr inbounds %"class.std::_Compressed_pair", %"class.std::_Compressed_pair"* %9, i32 0, i32 0, !dbg !2728
  %11 = getelementptr inbounds %"class.std::_String_val", %"class.std::_String_val"* %10, i32 0, i32 1, !dbg !2729
  %12 = load i64, i64* %11, align 8, !dbg !2729
  %13 = getelementptr inbounds %"class.std::basic_string", %"class.std::basic_string"* %5, i32 0, i32 0, !dbg !2730
  %14 = getelementptr inbounds %"class.std::_Compressed_pair", %"class.std::_Compressed_pair"* %13, i32 0, i32 0, !dbg !2731
  %15 = call i8* @"?_Myptr@?$_String_val@U?$_Simple_types@D@std@@@std@@QEBAPEBDXZ"(%"class.std::_String_val"* %14) #11, !dbg !2732
  %16 = call zeroext i1 @"??$_Traits_equal@U?$char_traits@D@std@@@std@@YA_NQEBD_K01@Z"(i8* %15, i64 %12, i8* %8, i64 %7) #11, !dbg !2733
  ret i1 %16, !dbg !2734
}

; Function Attrs: noinline nounwind optnone uwtable
define linkonce_odr dso_local zeroext i1 @"??$_Traits_equal@U?$char_traits@D@std@@@std@@YA_NQEBD_K01@Z"(i8* %0, i64 %1, i8* %2, i64 %3) #3 comdat !dbg !2735 {
  %5 = alloca i64, align 8
  %6 = alloca i8*, align 8
  %7 = alloca i64, align 8
  %8 = alloca i8*, align 8
  store i64 %3, i64* %5, align 8
  call void @llvm.dbg.declare(metadata i64* %5, metadata !2744, metadata !DIExpression()), !dbg !2745
  store i8* %2, i8** %6, align 8
  call void @llvm.dbg.declare(metadata i8** %6, metadata !2746, metadata !DIExpression()), !dbg !2747
  store i64 %1, i64* %7, align 8
  call void @llvm.dbg.declare(metadata i64* %7, metadata !2748, metadata !DIExpression()), !dbg !2749
  store i8* %0, i8** %8, align 8
  call void @llvm.dbg.declare(metadata i8** %8, metadata !2750, metadata !DIExpression()), !dbg !2751
  %9 = load i64, i64* %7, align 8, !dbg !2752
  %10 = load i64, i64* %5, align 8, !dbg !2753
  %11 = icmp eq i64 %9, %10, !dbg !2754
  br i1 %11, label %12, label %18, !dbg !2755

12:                                               ; preds = %4
  %13 = load i64, i64* %7, align 8, !dbg !2756
  %14 = load i8*, i8** %6, align 8, !dbg !2757
  %15 = load i8*, i8** %8, align 8, !dbg !2758
  %16 = call i32 @"?compare@?$_Narrow_char_traits@DH@std@@SAHQEBD0_K@Z"(i8* %15, i8* %14, i64 %13) #11, !dbg !2759
  %17 = icmp eq i32 %16, 0, !dbg !2760
  br label %18

18:                                               ; preds = %12, %4
  %19 = phi i1 [ false, %4 ], [ %17, %12 ], !dbg !2761
  ret i1 %19, !dbg !2762
}

; Function Attrs: noinline nounwind optnone uwtable
define linkonce_odr dso_local i8* @"?_Myptr@?$_String_val@U?$_Simple_types@D@std@@@std@@QEBAPEBDXZ"(%"class.std::_String_val"* %0) #3 comdat align 2 !dbg !2763 {
  %2 = alloca %"class.std::_String_val"*, align 8
  %3 = alloca i8*, align 8
  store %"class.std::_String_val"* %0, %"class.std::_String_val"** %2, align 8
  call void @llvm.dbg.declare(metadata %"class.std::_String_val"** %2, metadata !2764, metadata !DIExpression()), !dbg !2765
  %4 = load %"class.std::_String_val"*, %"class.std::_String_val"** %2, align 8
  call void @llvm.dbg.declare(metadata i8** %3, metadata !2766, metadata !DIExpression()), !dbg !2767
  %5 = getelementptr inbounds %"class.std::_String_val", %"class.std::_String_val"* %4, i32 0, i32 0, !dbg !2768
  %6 = bitcast %"union.std::_String_val<std::_Simple_types<char>>::_Bxty"* %5 to [16 x i8]*, !dbg !2769
  %7 = getelementptr inbounds [16 x i8], [16 x i8]* %6, i64 0, i64 0, !dbg !2768
  store i8* %7, i8** %3, align 8, !dbg !2767
  %8 = call zeroext i1 @"?_Large_string_engaged@?$_String_val@U?$_Simple_types@D@std@@@std@@QEBA_NXZ"(%"class.std::_String_val"* %4) #11, !dbg !2770
  br i1 %8, label %9, label %14, !dbg !2772

9:                                                ; preds = %1
  %10 = getelementptr inbounds %"class.std::_String_val", %"class.std::_String_val"* %4, i32 0, i32 0, !dbg !2773
  %11 = bitcast %"union.std::_String_val<std::_Simple_types<char>>::_Bxty"* %10 to i8**, !dbg !2775
  %12 = load i8*, i8** %11, align 8, !dbg !2775
  %13 = call i8* @"??$_Unfancy@D@std@@YAPEADPEAD@Z"(i8* %12) #11, !dbg !2776
  store i8* %13, i8** %3, align 8, !dbg !2777
  br label %14, !dbg !2778

14:                                               ; preds = %9, %1
  %15 = load i8*, i8** %3, align 8, !dbg !2779
  ret i8* %15, !dbg !2780
}

; Function Attrs: noinline nounwind optnone uwtable
define linkonce_odr dso_local i32 @"?compare@?$_Narrow_char_traits@DH@std@@SAHQEBD0_K@Z"(i8* %0, i8* %1, i64 %2) #3 comdat align 2 personality i8* bitcast (i32 (...)* @__CxxFrameHandler3 to i8*) !dbg !2781 {
  %4 = alloca i64, align 8
  %5 = alloca i8*, align 8
  %6 = alloca i8*, align 8
  store i64 %2, i64* %4, align 8
  call void @llvm.dbg.declare(metadata i64* %4, metadata !2782, metadata !DIExpression()), !dbg !2783
  store i8* %1, i8** %5, align 8
  call void @llvm.dbg.declare(metadata i8** %5, metadata !2784, metadata !DIExpression()), !dbg !2785
  store i8* %0, i8** %6, align 8
  call void @llvm.dbg.declare(metadata i8** %6, metadata !2786, metadata !DIExpression()), !dbg !2787
  %7 = load i64, i64* %4, align 8, !dbg !2788
  %8 = load i8*, i8** %5, align 8, !dbg !2789
  %9 = load i8*, i8** %6, align 8, !dbg !2790
  %10 = invoke i32 @memcmp(i8* %9, i8* %8, i64 %7)
          to label %11 unwind label %12, !dbg !2791

11:                                               ; preds = %3
  ret i32 %10, !dbg !2792

12:                                               ; preds = %3
  %13 = cleanuppad within none [], !dbg !2791
  call void @__std_terminate() #12 [ "funclet"(token %13) ], !dbg !2791
  unreachable, !dbg !2791
}

declare dso_local i32 @memcmp(i8*, i8*, i64) #2

attributes #0 = { noinline optnone uwtable "correctly-rounded-divide-sqrt-fp-math"="false" "disable-tail-calls"="false" "frame-pointer"="none" "less-precise-fpmad"="false" "min-legal-vector-width"="0" "no-infs-fp-math"="false" "no-jump-tables"="false" "no-nans-fp-math"="false" "no-signed-zeros-fp-math"="false" "no-trapping-math"="true" "stack-protector-buffer-size"="8" "target-cpu"="x86-64" "target-features"="+cx8,+fxsr,+mmx,+sse,+sse2,+x87" "unsafe-fp-math"="false" "use-soft-float"="false" }
attributes #1 = { nounwind readnone speculatable willreturn }
attributes #2 = { "correctly-rounded-divide-sqrt-fp-math"="false" "disable-tail-calls"="false" "frame-pointer"="none" "less-precise-fpmad"="false" "no-infs-fp-math"="false" "no-nans-fp-math"="false" "no-signed-zeros-fp-math"="false" "no-trapping-math"="true" "stack-protector-buffer-size"="8" "target-cpu"="x86-64" "target-features"="+cx8,+fxsr,+mmx,+sse,+sse2,+x87" "unsafe-fp-math"="false" "use-soft-float"="false" }
attributes #3 = { noinline nounwind optnone uwtable "correctly-rounded-divide-sqrt-fp-math"="false" "disable-tail-calls"="false" "frame-pointer"="none" "less-precise-fpmad"="false" "min-legal-vector-width"="0" "no-infs-fp-math"="false" "no-jump-tables"="false" "no-nans-fp-math"="false" "no-signed-zeros-fp-math"="false" "no-trapping-math"="true" "stack-protector-buffer-size"="8" "target-cpu"="x86-64" "target-features"="+cx8,+fxsr,+mmx,+sse,+sse2,+x87" "unsafe-fp-math"="false" "use-soft-float"="false" }
attributes #4 = { nounwind "correctly-rounded-divide-sqrt-fp-math"="false" "disable-tail-calls"="false" "frame-pointer"="none" "less-precise-fpmad"="false" "no-infs-fp-math"="false" "no-nans-fp-math"="false" "no-signed-zeros-fp-math"="false" "no-trapping-math"="true" "stack-protector-buffer-size"="8" "target-cpu"="x86-64" "target-features"="+cx8,+fxsr,+mmx,+sse,+sse2,+x87" "unsafe-fp-math"="false" "use-soft-float"="false" }
attributes #5 = { noreturn "correctly-rounded-divide-sqrt-fp-math"="false" "disable-tail-calls"="false" "frame-pointer"="none" "less-precise-fpmad"="false" "no-infs-fp-math"="false" "no-nans-fp-math"="false" "no-signed-zeros-fp-math"="false" "no-trapping-math"="true" "stack-protector-buffer-size"="8" "target-cpu"="x86-64" "target-features"="+cx8,+fxsr,+mmx,+sse,+sse2,+x87" "unsafe-fp-math"="false" "use-soft-float"="false" }
attributes #6 = { argmemonly nounwind willreturn }
attributes #7 = { noinline noreturn optnone uwtable "correctly-rounded-divide-sqrt-fp-math"="false" "disable-tail-calls"="false" "frame-pointer"="none" "less-precise-fpmad"="false" "min-legal-vector-width"="0" "no-infs-fp-math"="false" "no-jump-tables"="false" "no-nans-fp-math"="false" "no-signed-zeros-fp-math"="false" "no-trapping-math"="true" "stack-protector-buffer-size"="8" "target-cpu"="x86-64" "target-features"="+cx8,+fxsr,+mmx,+sse,+sse2,+x87" "unsafe-fp-math"="false" "use-soft-float"="false" }
attributes #8 = { argmemonly nounwind willreturn writeonly }
attributes #9 = { nobuiltin nounwind "correctly-rounded-divide-sqrt-fp-math"="false" "disable-tail-calls"="false" "frame-pointer"="none" "less-precise-fpmad"="false" "no-infs-fp-math"="false" "no-nans-fp-math"="false" "no-signed-zeros-fp-math"="false" "no-trapping-math"="true" "stack-protector-buffer-size"="8" "target-cpu"="x86-64" "target-features"="+cx8,+fxsr,+mmx,+sse,+sse2,+x87" "unsafe-fp-math"="false" "use-soft-float"="false" }
attributes #10 = { nobuiltin allocsize(0) "correctly-rounded-divide-sqrt-fp-math"="false" "disable-tail-calls"="false" "frame-pointer"="none" "less-precise-fpmad"="false" "no-infs-fp-math"="false" "no-nans-fp-math"="false" "no-signed-zeros-fp-math"="false" "no-trapping-math"="true" "stack-protector-buffer-size"="8" "target-cpu"="x86-64" "target-features"="+cx8,+fxsr,+mmx,+sse,+sse2,+x87" "unsafe-fp-math"="false" "use-soft-float"="false" }
attributes #11 = { nounwind }
attributes #12 = { noreturn nounwind }
attributes #13 = { noreturn }
attributes #14 = { allocsize(0) }
attributes #15 = { builtin nounwind }

!llvm.dbg.cu = !{!9}
!llvm.linker.options = !{!1534, !1535, !1536, !1537, !1538}
!llvm.module.flags = !{!1539, !1540, !1541}
!llvm.ident = !{!1542}

!0 = !DIGlobalVariableExpression(var: !1, expr: !DIExpression())
!1 = distinct !DIGlobalVariable(name: "g_counter", linkageName: "?g_counter@returnFromFrame@tests@@3HA", scope: !2, file: !4, line: 8, type: !5, isLocal: false, isDefinition: true)
!2 = !DINamespace(name: "returnFromFrame", scope: !3)
!3 = !DINamespace(name: "tests", scope: null)
!4 = !DIFile(filename: "ReturnFromFrameTests.cpp", directory: "C:\\temp2\\llvm-project\\WindbgPlugin\\ExecutableTest")
!5 = !DIBasicType(name: "int", size: 32, encoding: DW_ATE_signed)
!6 = !DIGlobalVariableExpression(var: !7, expr: !DIExpression())
!7 = distinct !DIGlobalVariable(name: "g_frameTwoMet", linkageName: "?g_frameTwoMet@returnFromFrame@tests@@3_NA", scope: !2, file: !4, line: 9, type: !8, isLocal: false, isDefinition: true)
!8 = !DIBasicType(name: "bool", size: 8, encoding: DW_ATE_boolean)
!9 = distinct !DICompileUnit(language: DW_LANG_C_plus_plus_14, file: !10, producer: "clang version 11.0.0 (https://github.com/ykfre/llvm-project.git 0785b9e4c1ca1c5deecfe71d37d3398ee84015c2)", isOptimized: false, runtimeVersion: 0, emissionKind: FullDebug, enums: !11, retainedTypes: !26, globals: !709, imports: !716, nameTableKind: None)
!10 = !DIFile(filename: "C:\\temp2\\llvm-project\\WindbgPlugin\\ExecutableTest\\ReturnFromFrameTests.cpp", directory: "C:\\temp2\\llvm-project\\WindbgPlugin\\ExecutableTest")
!11 = !{!12, !19}
!12 = !DICompositeType(tag: DW_TAG_enumeration_type, name: "float_denorm_style", scope: !14, file: !13, line: 25, baseType: !5, size: 32, elements: !15, identifier: ".?AW4float_denorm_style@std@@")
!13 = !DIFile(filename: "Program Files (x86)\\Microsoft Visual Studio\\2019\\Community\\VC\\Tools\\MSVC\\14.27.29110\\include\\limits", directory: "C:\\")
!14 = !DINamespace(name: "std", scope: null)
!15 = !{!16, !17, !18}
!16 = !DIEnumerator(name: "denorm_indeterminate", value: -1)
!17 = !DIEnumerator(name: "denorm_absent", value: 0)
!18 = !DIEnumerator(name: "denorm_present", value: 1)
!19 = !DICompositeType(tag: DW_TAG_enumeration_type, name: "float_round_style", scope: !14, file: !13, line: 32, baseType: !5, size: 32, elements: !20, identifier: ".?AW4float_round_style@std@@")
!20 = !{!21, !22, !23, !24, !25}
!21 = !DIEnumerator(name: "round_indeterminate", value: -1)
!22 = !DIEnumerator(name: "round_toward_zero", value: 0)
!23 = !DIEnumerator(name: "round_to_nearest", value: 1)
!24 = !DIEnumerator(name: "round_toward_infinity", value: 2)
!25 = !DIEnumerator(name: "round_toward_neg_infinity", value: 3)
!26 = !{!27, !28, !31, !32, !34, !36, !39, !41, !96}
!27 = !DIDerivedType(tag: DW_TAG_pointer_type, baseType: !28, size: 64)
!28 = !DIDerivedType(tag: DW_TAG_typedef, name: "uintptr_t", file: !29, line: 61, baseType: !30)
!29 = !DIFile(filename: "Program Files (x86)\\Microsoft Visual Studio\\2019\\Community\\VC\\Tools\\MSVC\\14.27.29110\\include\\vadefs.h", directory: "C:\\")
!30 = !DIBasicType(name: "long long unsigned int", size: 64, encoding: DW_ATE_unsigned)
!31 = !DIDerivedType(tag: DW_TAG_pointer_type, baseType: null, size: 64)
!32 = !DIDerivedType(tag: DW_TAG_pointer_type, baseType: !33, size: 64)
!33 = !DIBasicType(name: "char", size: 8, encoding: DW_ATE_signed_char)
!34 = !DIDerivedType(tag: DW_TAG_typedef, name: "size_t", file: !35, line: 46, baseType: !30)
!35 = !DIFile(filename: "temp\\Release\\lib\\clang\\11.0.0\\include\\stddef.h", directory: "C:\\temp2\\llvm-project")
!36 = !DIDerivedType(tag: DW_TAG_pointer_type, baseType: !37, size: 64)
!37 = !DIDerivedType(tag: DW_TAG_const_type, baseType: !38)
!38 = !DIDerivedType(tag: DW_TAG_volatile_type, baseType: null)
!39 = !DIDerivedType(tag: DW_TAG_pointer_type, baseType: !40, size: 64)
!40 = !DIDerivedType(tag: DW_TAG_const_type, baseType: !33)
!41 = distinct !DICompositeType(tag: DW_TAG_class_type, name: "basic_string<char, std::char_traits<char>, std::allocator<char> >", scope: !14, file: !42, line: 2205, size: 256, flags: DIFlagTypePassByReference | DIFlagNonTrivial, elements: !43, templateParams: !654, identifier: ".?AV?$basic_string@DU?$char_traits@D@std@@V?$allocator@D@2@@std@@")
!42 = !DIFile(filename: "Program Files (x86)\\Microsoft Visual Studio\\2019\\Community\\VC\\Tools\\MSVC\\14.27.29110\\include\\xstring", directory: "C:\\")
!43 = !{!44, !46, !47, !49, !51, !52, !53, !194, !200, !203, !206, !209, !242, !245, !249, !252, !255, !258, !261, !264, !278, !281, !285, !288, !292, !296, !300, !320, !338, !341, !342, !343, !346, !349, !350, !355, !358, !359, !360, !361, !370, !373, !374, !375, !378, !381, !384, !387, !390, !391, !392, !395, !396, !399, !402, !403, !406, !407, !408, !409, !410, !411, !414, !417, !420, !423, !426, !429, !432, !435, !438, !441, !444, !445, !448, !451, !454, !457, !460, !463, !466, !469, !472, !475, !479, !480, !481, !484, !487, !488, !489, !494, !499, !500, !501, !502, !503, !504, !505, !506, !512, !518, !519, !520, !523, !524, !527, !530, !531, !532, !533, !534, !537, !538, !539, !540, !541, !544, !547, !550, !553, !554, !559, !560, !563, !566, !569, !572, !575, !576, !577, !578, !579, !580, !581, !582, !583, !586, !587, !588, !589, !590, !591, !594, !595, !596, !597, !598, !599, !602, !605, !608, !611, !614, !617, !620, !623, !626, !630, !633, !636, !637, !638, !639, !640, !641, !642, !649}
!44 = !DIDerivedType(tag: DW_TAG_member, name: "_BUF_SIZE", scope: !41, file: !42, line: 2242, baseType: !45, flags: DIFlagStaticMember, extraData: i64 16)
!45 = !DIDerivedType(tag: DW_TAG_const_type, baseType: !30)
!46 = !DIDerivedType(tag: DW_TAG_member, name: "_ALLOC_MASK", scope: !41, file: !42, line: 2243, baseType: !45, flags: DIFlagStaticMember, extraData: i64 15)
!47 = !DIDerivedType(tag: DW_TAG_member, name: "_Can_memcpy_val", scope: !41, file: !42, line: 2255, baseType: !48, flags: DIFlagStaticMember)
!48 = !DIDerivedType(tag: DW_TAG_const_type, baseType: !8)
!49 = !DIDerivedType(tag: DW_TAG_member, name: "_Memcpy_val_offset", scope: !41, file: !42, line: 2257, baseType: !50, flags: DIFlagStaticMember)
!50 = !DIDerivedType(tag: DW_TAG_const_type, baseType: !34)
!51 = !DIDerivedType(tag: DW_TAG_member, name: "_Memcpy_val_size", scope: !41, file: !42, line: 2258, baseType: !50, flags: DIFlagStaticMember)
!52 = !DIDerivedType(tag: DW_TAG_member, name: "npos", scope: !41, file: !42, line: 2732, baseType: !45, flags: DIFlagPublic | DIFlagStaticMember, extraData: i64 -1)
!53 = !DIDerivedType(tag: DW_TAG_member, name: "_Mypair", scope: !41, file: !42, line: 4332, baseType: !54, size: 256)
!54 = distinct !DICompositeType(tag: DW_TAG_class_type, name: "_Compressed_pair<std::allocator<char>, std::_String_val<std::_Simple_types<char> >, true>", scope: !14, file: !55, line: 1327, size: 256, flags: DIFlagTypePassByReference | DIFlagNonTrivial, elements: !56, templateParams: !190, identifier: ".?AV?$_Compressed_pair@V?$allocator@D@std@@V?$_String_val@U?$_Simple_types@D@std@@@2@$00@std@@")
!55 = !DIFile(filename: "Program Files (x86)\\Microsoft Visual Studio\\2019\\Community\\VC\\Tools\\MSVC\\14.27.29110\\include\\xmemory", directory: "C:\\")
!56 = !{!57, !95, !180, !185}
!57 = !DIDerivedType(tag: DW_TAG_inheritance, scope: !54, baseType: !58, extraData: i32 0)
!58 = distinct !DICompositeType(tag: DW_TAG_class_type, name: "allocator<char>", scope: !14, file: !55, line: 761, size: 8, flags: DIFlagTypePassByValue | DIFlagNonTrivial, elements: !59, templateParams: !93, identifier: ".?AV?$allocator@D@std@@")
!59 = !{!60, !66, !70, !74, !78, !82, !85, !90}
!60 = !DISubprogram(name: "address", linkageName: "?address@?$allocator@D@std@@QEBAPEADAEAD@Z", scope: !58, file: !55, line: 787, type: !61, scopeLine: 787, flags: DIFlagPublic | DIFlagPrototyped, spFlags: 0)
!61 = !DISubroutineType(types: !62)
!62 = !{!32, !63, !65}
!63 = !DIDerivedType(tag: DW_TAG_pointer_type, baseType: !64, size: 64, flags: DIFlagArtificial | DIFlagObjectPointer)
!64 = !DIDerivedType(tag: DW_TAG_const_type, baseType: !58)
!65 = !DIDerivedType(tag: DW_TAG_reference_type, baseType: !33, size: 64)
!66 = !DISubprogram(name: "address", linkageName: "?address@?$allocator@D@std@@QEBAPEBDAEBD@Z", scope: !58, file: !55, line: 791, type: !67, scopeLine: 791, flags: DIFlagPublic | DIFlagPrototyped, spFlags: 0)
!67 = !DISubroutineType(types: !68)
!68 = !{!39, !63, !69}
!69 = !DIDerivedType(tag: DW_TAG_reference_type, baseType: !40, size: 64)
!70 = !DISubprogram(name: "allocator", scope: !58, file: !55, line: 795, type: !71, scopeLine: 795, flags: DIFlagPublic | DIFlagPrototyped, spFlags: 0)
!71 = !DISubroutineType(types: !72)
!72 = !{null, !73}
!73 = !DIDerivedType(tag: DW_TAG_pointer_type, baseType: !58, size: 64, flags: DIFlagArtificial | DIFlagObjectPointer)
!74 = !DISubprogram(name: "allocator", scope: !58, file: !55, line: 797, type: !75, scopeLine: 797, flags: DIFlagPublic | DIFlagPrototyped, spFlags: 0)
!75 = !DISubroutineType(types: !76)
!76 = !{null, !73, !77}
!77 = !DIDerivedType(tag: DW_TAG_reference_type, baseType: !64, size: 64)
!78 = !DISubprogram(name: "deallocate", linkageName: "?deallocate@?$allocator@D@std@@QEAAXQEAD_K@Z", scope: !58, file: !55, line: 801, type: !79, scopeLine: 801, flags: DIFlagPublic | DIFlagPrototyped, spFlags: 0)
!79 = !DISubroutineType(types: !80)
!80 = !{null, !73, !81, !50}
!81 = !DIDerivedType(tag: DW_TAG_const_type, baseType: !32)
!82 = !DISubprogram(name: "allocate", linkageName: "?allocate@?$allocator@D@std@@QEAAPEAD_K@Z", scope: !58, file: !55, line: 806, type: !83, scopeLine: 806, flags: DIFlagPublic | DIFlagPrototyped, spFlags: 0)
!83 = !DISubroutineType(types: !84)
!84 = !{!32, !73, !50}
!85 = !DISubprogram(name: "allocate", linkageName: "?allocate@?$allocator@D@std@@QEAAPEAD_KPEBX@Z", scope: !58, file: !55, line: 810, type: !86, scopeLine: 810, flags: DIFlagPublic | DIFlagPrototyped, spFlags: 0)
!86 = !DISubroutineType(types: !87)
!87 = !{!32, !73, !50, !88}
!88 = !DIDerivedType(tag: DW_TAG_pointer_type, baseType: !89, size: 64)
!89 = !DIDerivedType(tag: DW_TAG_const_type, baseType: null)
!90 = !DISubprogram(name: "max_size", linkageName: "?max_size@?$allocator@D@std@@QEBA_KXZ", scope: !58, file: !55, line: 825, type: !91, scopeLine: 825, flags: DIFlagPublic | DIFlagPrototyped, spFlags: 0)
!91 = !DISubroutineType(types: !92)
!92 = !{!34, !63}
!93 = !{!94}
!94 = !DITemplateTypeParameter(name: "_Ty", type: !33)
!95 = !DIDerivedType(tag: DW_TAG_member, name: "_Myval2", scope: !54, file: !55, line: 1329, baseType: !96, size: 256, flags: DIFlagPublic)
!96 = distinct !DICompositeType(tag: DW_TAG_class_type, name: "_String_val<std::_Simple_types<char> >", scope: !14, file: !42, line: 2114, size: 256, flags: DIFlagTypePassByReference | DIFlagNonTrivial, elements: !97, templateParams: !178, identifier: ".?AV?$_String_val@U?$_Simple_types@D@std@@@std@@")
!97 = !{!98, !120, !127, !128, !148, !149, !150, !154, !158, !165, !168, !171, !172, !175}
!98 = !DIDerivedType(tag: DW_TAG_inheritance, scope: !96, baseType: !99, flags: DIFlagPublic, extraData: i32 0)
!99 = !DIDerivedType(tag: DW_TAG_typedef, name: "_Container_base", scope: !14, file: !55, line: 1238, baseType: !100)
!100 = distinct !DICompositeType(tag: DW_TAG_structure_type, name: "_Container_base0", scope: !14, file: !55, line: 1064, size: 8, flags: DIFlagTypePassByValue, elements: !101, identifier: ".?AU_Container_base0@std@@")
!101 = !{!102, !106, !110, !117}
!102 = !DISubprogram(name: "_Orphan_all", linkageName: "?_Orphan_all@_Container_base0@std@@QEAAXXZ", scope: !100, file: !55, line: 1065, type: !103, scopeLine: 1065, flags: DIFlagPrototyped, spFlags: 0)
!103 = !DISubroutineType(types: !104)
!104 = !{null, !105}
!105 = !DIDerivedType(tag: DW_TAG_pointer_type, baseType: !100, size: 64, flags: DIFlagArtificial | DIFlagObjectPointer)
!106 = !DISubprogram(name: "_Swap_proxy_and_iterators", linkageName: "?_Swap_proxy_and_iterators@_Container_base0@std@@QEAAXAEAU12@@Z", scope: !100, file: !55, line: 1066, type: !107, scopeLine: 1066, flags: DIFlagPrototyped, spFlags: 0)
!107 = !DISubroutineType(types: !108)
!108 = !{null, !105, !109}
!109 = !DIDerivedType(tag: DW_TAG_reference_type, baseType: !100, size: 64)
!110 = !DISubprogram(name: "_Alloc_proxy", linkageName: "?_Alloc_proxy@_Container_base0@std@@QEAAXAEBU_Fake_allocator@2@@Z", scope: !100, file: !55, line: 1067, type: !111, scopeLine: 1067, flags: DIFlagPrototyped, spFlags: 0)
!111 = !DISubroutineType(types: !112)
!112 = !{null, !105, !113}
!113 = !DIDerivedType(tag: DW_TAG_reference_type, baseType: !114, size: 64)
!114 = !DIDerivedType(tag: DW_TAG_const_type, baseType: !115)
!115 = distinct !DICompositeType(tag: DW_TAG_structure_type, name: "_Fake_allocator", scope: !14, file: !55, line: 1062, size: 8, flags: DIFlagTypePassByValue, elements: !116, identifier: ".?AU_Fake_allocator@std@@")
!116 = !{}
!117 = !DISubprogram(name: "_Reload_proxy", linkageName: "?_Reload_proxy@_Container_base0@std@@QEAAXAEBU_Fake_allocator@2@0@Z", scope: !100, file: !55, line: 1068, type: !118, scopeLine: 1068, flags: DIFlagPrototyped, spFlags: 0)
!118 = !DISubroutineType(types: !119)
!119 = !{null, !105, !113, !113}
!120 = !DIDerivedType(tag: DW_TAG_member, name: "_BUF_SIZE", scope: !96, file: !42, line: 2127, baseType: !121, flags: DIFlagPublic | DIFlagStaticMember, extraData: i64 16)
!121 = !DIDerivedType(tag: DW_TAG_const_type, baseType: !122)
!122 = !DIDerivedType(tag: DW_TAG_typedef, name: "size_type", scope: !96, file: !42, line: 2117, baseType: !123)
!123 = !DIDerivedType(tag: DW_TAG_typedef, name: "size_type", scope: !124, file: !55, line: 753, baseType: !34)
!124 = distinct !DICompositeType(tag: DW_TAG_structure_type, name: "_Simple_types<char>", scope: !14, file: !55, line: 750, size: 8, flags: DIFlagTypePassByValue, elements: !116, templateParams: !125, identifier: ".?AU?$_Simple_types@D@std@@")
!125 = !{!126}
!126 = !DITemplateTypeParameter(name: "_Value_type", type: !33)
!127 = !DIDerivedType(tag: DW_TAG_member, name: "_ALLOC_MASK", scope: !96, file: !42, line: 2129, baseType: !121, flags: DIFlagPublic | DIFlagStaticMember, extraData: i64 15)
!128 = !DIDerivedType(tag: DW_TAG_member, name: "_Bx", scope: !96, file: !42, line: 2185, baseType: !129, size: 128, flags: DIFlagPublic)
!129 = distinct !DICompositeType(tag: DW_TAG_union_type, name: "_Bxty", scope: !96, file: !42, line: 2177, size: 128, flags: DIFlagTypePassByReference | DIFlagNonTrivial, elements: !130, identifier: ".?AT_Bxty@?$_String_val@U?$_Simple_types@D@std@@@std@@")
!130 = !{!131, !137, !141, !143, !147}
!131 = !DIDerivedType(tag: DW_TAG_member, name: "_Buf", scope: !129, file: !42, line: 2182, baseType: !132, size: 128)
!132 = !DICompositeType(tag: DW_TAG_array_type, baseType: !133, size: 128, elements: !135)
!133 = !DIDerivedType(tag: DW_TAG_typedef, name: "value_type", scope: !96, file: !42, line: 2116, baseType: !134)
!134 = !DIDerivedType(tag: DW_TAG_typedef, name: "value_type", scope: !124, file: !55, line: 752, baseType: !33)
!135 = !{!136}
!136 = !DISubrange(count: 16)
!137 = !DIDerivedType(tag: DW_TAG_member, name: "_Ptr", scope: !129, file: !42, line: 2183, baseType: !138, size: 64)
!138 = !DIDerivedType(tag: DW_TAG_typedef, name: "pointer", scope: !96, file: !42, line: 2119, baseType: !139)
!139 = !DIDerivedType(tag: DW_TAG_typedef, name: "pointer", scope: !124, file: !55, line: 755, baseType: !140)
!140 = !DIDerivedType(tag: DW_TAG_pointer_type, baseType: !134, size: 64)
!141 = !DIDerivedType(tag: DW_TAG_member, name: "_Alias", scope: !129, file: !42, line: 2184, baseType: !142, size: 128)
!142 = !DICompositeType(tag: DW_TAG_array_type, baseType: !33, size: 128, elements: !135)
!143 = !DISubprogram(name: "_Bxty", scope: !129, file: !42, line: 2178, type: !144, scopeLine: 2178, flags: DIFlagPrototyped, spFlags: 0)
!144 = !DISubroutineType(types: !145)
!145 = !{null, !146}
!146 = !DIDerivedType(tag: DW_TAG_pointer_type, baseType: !129, size: 64, flags: DIFlagArtificial | DIFlagObjectPointer)
!147 = !DISubprogram(name: "~_Bxty", scope: !129, file: !42, line: 2180, type: !144, scopeLine: 2180, flags: DIFlagPrototyped, spFlags: 0)
!148 = !DIDerivedType(tag: DW_TAG_member, name: "_Mysize", scope: !96, file: !42, line: 2187, baseType: !122, size: 64, offset: 128, flags: DIFlagPublic)
!149 = !DIDerivedType(tag: DW_TAG_member, name: "_Myres", scope: !96, file: !42, line: 2188, baseType: !122, size: 64, offset: 192, flags: DIFlagPublic)
!150 = !DISubprogram(name: "_String_val", scope: !96, file: !42, line: 2124, type: !151, scopeLine: 2124, flags: DIFlagPublic | DIFlagPrototyped, spFlags: 0)
!151 = !DISubroutineType(types: !152)
!152 = !{null, !153}
!153 = !DIDerivedType(tag: DW_TAG_pointer_type, baseType: !96, size: 64, flags: DIFlagArtificial | DIFlagObjectPointer)
!154 = !DISubprogram(name: "_Myptr", linkageName: "?_Myptr@?$_String_val@U?$_Simple_types@D@std@@@std@@QEAAPEADXZ", scope: !96, file: !42, line: 2134, type: !155, scopeLine: 2134, flags: DIFlagPublic | DIFlagPrototyped, spFlags: 0)
!155 = !DISubroutineType(types: !156)
!156 = !{!157, !153}
!157 = !DIDerivedType(tag: DW_TAG_pointer_type, baseType: !133, size: 64)
!158 = !DISubprogram(name: "_Myptr", linkageName: "?_Myptr@?$_String_val@U?$_Simple_types@D@std@@@std@@QEBAPEBDXZ", scope: !96, file: !42, line: 2143, type: !159, scopeLine: 2143, flags: DIFlagPublic | DIFlagPrototyped, spFlags: 0)
!159 = !DISubroutineType(types: !160)
!160 = !{!161, !163}
!161 = !DIDerivedType(tag: DW_TAG_pointer_type, baseType: !162, size: 64)
!162 = !DIDerivedType(tag: DW_TAG_const_type, baseType: !133)
!163 = !DIDerivedType(tag: DW_TAG_pointer_type, baseType: !164, size: 64, flags: DIFlagArtificial | DIFlagObjectPointer)
!164 = !DIDerivedType(tag: DW_TAG_const_type, baseType: !96)
!165 = !DISubprogram(name: "_Large_string_engaged", linkageName: "?_Large_string_engaged@?$_String_val@U?$_Simple_types@D@std@@@std@@QEBA_NXZ", scope: !96, file: !42, line: 2152, type: !166, scopeLine: 2152, flags: DIFlagPublic | DIFlagPrototyped, spFlags: 0)
!166 = !DISubroutineType(types: !167)
!167 = !{!8, !163}
!168 = !DISubprogram(name: "_Check_offset", linkageName: "?_Check_offset@?$_String_val@U?$_Simple_types@D@std@@@std@@QEBAX_K@Z", scope: !96, file: !42, line: 2156, type: !169, scopeLine: 2156, flags: DIFlagPublic | DIFlagPrototyped, spFlags: 0)
!169 = !DISubroutineType(types: !170)
!170 = !{null, !163, !121}
!171 = !DISubprogram(name: "_Check_offset_exclusive", linkageName: "?_Check_offset_exclusive@?$_String_val@U?$_Simple_types@D@std@@@std@@QEBAX_K@Z", scope: !96, file: !42, line: 2162, type: !169, scopeLine: 2162, flags: DIFlagPublic | DIFlagPrototyped, spFlags: 0)
!172 = !DISubprogram(name: "_Xran", linkageName: "?_Xran@?$_String_val@U?$_Simple_types@D@std@@@std@@SAXXZ", scope: !96, file: !42, line: 2168, type: !173, scopeLine: 2168, flags: DIFlagPublic | DIFlagPrototyped | DIFlagStaticMember | DIFlagNoReturn, spFlags: 0)
!173 = !DISubroutineType(types: !174)
!174 = !{null}
!175 = !DISubprogram(name: "_Clamp_suffix_size", linkageName: "?_Clamp_suffix_size@?$_String_val@U?$_Simple_types@D@std@@@std@@QEBA_K_K0@Z", scope: !96, file: !42, line: 2172, type: !176, scopeLine: 2172, flags: DIFlagPublic | DIFlagPrototyped, spFlags: 0)
!176 = !DISubroutineType(types: !177)
!177 = !{!122, !163, !121, !121}
!178 = !{!179}
!179 = !DITemplateTypeParameter(name: "_Val_types", type: !124)
!180 = !DISubprogram(name: "_Get_first", linkageName: "?_Get_first@?$_Compressed_pair@V?$allocator@D@std@@V?$_String_val@U?$_Simple_types@D@std@@@2@$00@std@@QEAAAEAV?$allocator@D@2@XZ", scope: !54, file: !55, line: 1343, type: !181, scopeLine: 1343, flags: DIFlagPublic | DIFlagPrototyped, spFlags: 0)
!181 = !DISubroutineType(types: !182)
!182 = !{!183, !184}
!183 = !DIDerivedType(tag: DW_TAG_reference_type, baseType: !58, size: 64)
!184 = !DIDerivedType(tag: DW_TAG_pointer_type, baseType: !54, size: 64, flags: DIFlagArtificial | DIFlagObjectPointer)
!185 = !DISubprogram(name: "_Get_first", linkageName: "?_Get_first@?$_Compressed_pair@V?$allocator@D@std@@V?$_String_val@U?$_Simple_types@D@std@@@2@$00@std@@QEBAAEBV?$allocator@D@2@XZ", scope: !54, file: !55, line: 1347, type: !186, scopeLine: 1347, flags: DIFlagPublic | DIFlagPrototyped, spFlags: 0)
!186 = !DISubroutineType(types: !187)
!187 = !{!77, !188}
!188 = !DIDerivedType(tag: DW_TAG_pointer_type, baseType: !189, size: 64, flags: DIFlagArtificial | DIFlagObjectPointer)
!189 = !DIDerivedType(tag: DW_TAG_const_type, baseType: !54)
!190 = !{!191, !192, !193}
!191 = !DITemplateTypeParameter(name: "_Ty1", type: !58)
!192 = !DITemplateTypeParameter(name: "_Ty2", type: !96)
!193 = !DITemplateValueParameter(type: !8, value: i8 1)
!194 = !DISubprogram(name: "basic_string", scope: !41, file: !42, line: 2272, type: !195, scopeLine: 2272, flags: DIFlagPublic | DIFlagPrototyped, spFlags: 0)
!195 = !DISubroutineType(types: !196)
!196 = !{null, !197, !198}
!197 = !DIDerivedType(tag: DW_TAG_pointer_type, baseType: !41, size: 64, flags: DIFlagArtificial | DIFlagObjectPointer)
!198 = !DIDerivedType(tag: DW_TAG_reference_type, baseType: !199, size: 64)
!199 = !DIDerivedType(tag: DW_TAG_const_type, baseType: !41)
!200 = !DISubprogram(name: "basic_string", scope: !41, file: !42, line: 2280, type: !201, scopeLine: 2280, flags: DIFlagPublic | DIFlagPrototyped, spFlags: 0)
!201 = !DISubroutineType(types: !202)
!202 = !{null, !197, !198, !77}
!203 = !DISubprogram(name: "basic_string", scope: !41, file: !42, line: 2287, type: !204, scopeLine: 2287, flags: DIFlagPublic | DIFlagPrototyped, spFlags: 0)
!204 = !DISubroutineType(types: !205)
!205 = !{null, !197}
!206 = !DISubprogram(name: "basic_string", scope: !41, file: !42, line: 2292, type: !207, scopeLine: 2292, flags: DIFlagPublic | DIFlagExplicit | DIFlagPrototyped, spFlags: 0)
!207 = !DISubroutineType(types: !208)
!208 = !{null, !197, !77}
!209 = !DISubprogram(name: "basic_string", scope: !41, file: !42, line: 2297, type: !210, scopeLine: 2297, flags: DIFlagPublic | DIFlagPrototyped, spFlags: 0)
!210 = !DISubroutineType(types: !211)
!211 = !{null, !197, !198, !212, !77}
!212 = !DIDerivedType(tag: DW_TAG_const_type, baseType: !213)
!213 = !DIDerivedType(tag: DW_TAG_typedef, name: "size_type", scope: !41, file: !42, line: 2228, baseType: !214)
!214 = !DIDerivedType(tag: DW_TAG_typedef, name: "size_type", scope: !215, file: !55, line: 664, baseType: !34)
!215 = distinct !DICompositeType(tag: DW_TAG_structure_type, name: "_Default_allocator_traits<std::allocator<char> >", scope: !14, file: !55, line: 655, size: 8, flags: DIFlagTypePassByValue, elements: !216, templateParams: !240, identifier: ".?AU?$_Default_allocator_traits@V?$allocator@D@std@@@std@@")
!216 = !{!217, !226, !230, !234, !237}
!217 = !DISubprogram(name: "allocate", linkageName: "?allocate@?$_Default_allocator_traits@V?$allocator@D@std@@@std@@SAPEADAEAV?$allocator@D@2@_K@Z", scope: !215, file: !55, line: 678, type: !218, scopeLine: 678, flags: DIFlagPrototyped | DIFlagStaticMember, spFlags: 0)
!218 = !DISubroutineType(types: !219)
!219 = !{!220, !183, !224}
!220 = !DIDerivedType(tag: DW_TAG_typedef, name: "pointer", scope: !215, file: !55, line: 659, baseType: !221)
!221 = !DIDerivedType(tag: DW_TAG_pointer_type, baseType: !222, size: 64)
!222 = !DIDerivedType(tag: DW_TAG_typedef, name: "value_type", scope: !215, file: !55, line: 657, baseType: !223)
!223 = !DIDerivedType(tag: DW_TAG_typedef, name: "value_type", scope: !58, file: !55, line: 768, baseType: !33)
!224 = !DIDerivedType(tag: DW_TAG_const_type, baseType: !225)
!225 = !DIDerivedType(tag: DW_TAG_typedef, name: "size_type", file: !55, line: 664, baseType: !34)
!226 = !DISubprogram(name: "allocate", linkageName: "?allocate@?$_Default_allocator_traits@V?$allocator@D@std@@@std@@SAPEADAEAV?$allocator@D@2@_KPEBX@Z", scope: !215, file: !55, line: 683, type: !227, scopeLine: 683, flags: DIFlagPrototyped | DIFlagStaticMember, spFlags: 0)
!227 = !DISubroutineType(types: !228)
!228 = !{!220, !183, !224, !229}
!229 = !DIDerivedType(tag: DW_TAG_typedef, name: "const_void_pointer", file: !55, line: 662, baseType: !88)
!230 = !DISubprogram(name: "deallocate", linkageName: "?deallocate@?$_Default_allocator_traits@V?$allocator@D@std@@@std@@SAXAEAV?$allocator@D@2@QEAD_K@Z", scope: !215, file: !55, line: 687, type: !231, scopeLine: 687, flags: DIFlagPrototyped | DIFlagStaticMember, spFlags: 0)
!231 = !DISubroutineType(types: !232)
!232 = !{null, !183, !233, !224}
!233 = !DIDerivedType(tag: DW_TAG_const_type, baseType: !220)
!234 = !DISubprogram(name: "max_size", linkageName: "?max_size@?$_Default_allocator_traits@V?$allocator@D@std@@@std@@SA_KAEBV?$allocator@D@2@@Z", scope: !215, file: !55, line: 702, type: !235, scopeLine: 702, flags: DIFlagPrototyped | DIFlagStaticMember, spFlags: 0)
!235 = !DISubroutineType(types: !236)
!236 = !{!214, !77}
!237 = !DISubprogram(name: "select_on_container_copy_construction", linkageName: "?select_on_container_copy_construction@?$_Default_allocator_traits@V?$allocator@D@std@@@std@@SA?AV?$allocator@D@2@AEBV32@@Z", scope: !215, file: !55, line: 706, type: !238, scopeLine: 706, flags: DIFlagPrototyped | DIFlagStaticMember, spFlags: 0)
!238 = !DISubroutineType(types: !239)
!239 = !{!58, !77}
!240 = !{!241}
!241 = !DITemplateTypeParameter(name: "_Alloc", type: !58)
!242 = !DISubprogram(name: "basic_string", scope: !41, file: !42, line: 2306, type: !243, scopeLine: 2306, flags: DIFlagPublic | DIFlagPrototyped, spFlags: 0)
!243 = !DISubroutineType(types: !244)
!244 = !{null, !197, !198, !212, !212, !77}
!245 = !DISubprogram(name: "basic_string", scope: !41, file: !42, line: 2316, type: !246, scopeLine: 2316, flags: DIFlagPublic | DIFlagPrototyped, spFlags: 0)
!246 = !DISubroutineType(types: !247)
!247 = !{null, !197, !248, !212}
!248 = !DIDerivedType(tag: DW_TAG_const_type, baseType: !39)
!249 = !DISubprogram(name: "basic_string", scope: !41, file: !42, line: 2325, type: !250, scopeLine: 2325, flags: DIFlagPublic | DIFlagPrototyped, spFlags: 0)
!250 = !DISubroutineType(types: !251)
!251 = !{null, !197, !248, !212, !77}
!252 = !DISubprogram(name: "basic_string", scope: !41, file: !42, line: 2335, type: !253, scopeLine: 2335, flags: DIFlagPublic | DIFlagPrototyped, spFlags: 0)
!253 = !DISubroutineType(types: !254)
!254 = !{null, !197, !248}
!255 = !DISubprogram(name: "basic_string", scope: !41, file: !42, line: 2346, type: !256, scopeLine: 2346, flags: DIFlagPublic | DIFlagPrototyped, spFlags: 0)
!256 = !DISubroutineType(types: !257)
!257 = !{null, !197, !248, !77}
!258 = !DISubprogram(name: "basic_string", scope: !41, file: !42, line: 2354, type: !259, scopeLine: 2354, flags: DIFlagPublic | DIFlagPrototyped, spFlags: 0)
!259 = !DISubroutineType(types: !260)
!260 = !{null, !197, !212, !40}
!261 = !DISubprogram(name: "basic_string", scope: !41, file: !42, line: 2366, type: !262, scopeLine: 2366, flags: DIFlagPublic | DIFlagPrototyped, spFlags: 0)
!262 = !DISubroutineType(types: !263)
!263 = !{null, !197, !212, !40, !77}
!264 = !DISubprogram(name: "_Construct", linkageName: "?_Construct@?$basic_string@DU?$char_traits@D@std@@V?$allocator@D@2@@std@@QEAAXQEAD0Urandom_access_iterator_tag@2@@Z", scope: !41, file: !42, line: 2404, type: !265, scopeLine: 2404, flags: DIFlagPublic | DIFlagPrototyped, spFlags: 0)
!265 = !DISubroutineType(types: !266)
!266 = !{null, !197, !81, !81, !267}
!267 = distinct !DICompositeType(tag: DW_TAG_structure_type, name: "random_access_iterator_tag", scope: !14, file: !268, line: 238, size: 8, flags: DIFlagTypePassByValue, elements: !269, identifier: ".?AUrandom_access_iterator_tag@std@@")
!268 = !DIFile(filename: "Program Files (x86)\\Microsoft Visual Studio\\2019\\Community\\VC\\Tools\\MSVC\\14.27.29110\\include\\xutility", directory: "C:\\")
!269 = !{!270}
!270 = !DIDerivedType(tag: DW_TAG_inheritance, scope: !267, baseType: !271, extraData: i32 0)
!271 = distinct !DICompositeType(tag: DW_TAG_structure_type, name: "bidirectional_iterator_tag", scope: !14, file: !268, line: 236, size: 8, flags: DIFlagTypePassByValue, elements: !272, identifier: ".?AUbidirectional_iterator_tag@std@@")
!272 = !{!273}
!273 = !DIDerivedType(tag: DW_TAG_inheritance, scope: !271, baseType: !274, extraData: i32 0)
!274 = distinct !DICompositeType(tag: DW_TAG_structure_type, name: "forward_iterator_tag", scope: !14, file: !268, line: 234, size: 8, flags: DIFlagTypePassByValue, elements: !275, identifier: ".?AUforward_iterator_tag@std@@")
!275 = !{!276}
!276 = !DIDerivedType(tag: DW_TAG_inheritance, scope: !274, baseType: !277, extraData: i32 0)
!277 = distinct !DICompositeType(tag: DW_TAG_structure_type, name: "input_iterator_tag", scope: !14, file: !268, line: 230, size: 8, flags: DIFlagTypePassByValue, elements: !116, identifier: ".?AUinput_iterator_tag@std@@")
!278 = !DISubprogram(name: "_Construct", linkageName: "?_Construct@?$basic_string@DU?$char_traits@D@std@@V?$allocator@D@2@@std@@QEAAXQEBD0Urandom_access_iterator_tag@2@@Z", scope: !41, file: !42, line: 2411, type: !279, scopeLine: 2411, flags: DIFlagPublic | DIFlagPrototyped, spFlags: 0)
!279 = !DISubroutineType(types: !280)
!280 = !{null, !197, !248, !248, !267}
!281 = !DISubprogram(name: "basic_string", scope: !41, file: !42, line: 2418, type: !282, scopeLine: 2418, flags: DIFlagPublic | DIFlagPrototyped, spFlags: 0)
!282 = !DISubroutineType(types: !283)
!283 = !{null, !197, !284}
!284 = !DIDerivedType(tag: DW_TAG_rvalue_reference_type, baseType: !41, size: 64)
!285 = !DISubprogram(name: "basic_string", scope: !41, file: !42, line: 2423, type: !286, scopeLine: 2423, flags: DIFlagPublic | DIFlagPrototyped, spFlags: 0)
!286 = !DISubroutineType(types: !287)
!287 = !{null, !197, !284, !77}
!288 = !DISubprogram(name: "basic_string", scope: !41, file: !42, line: 2440, type: !289, scopeLine: 2440, flags: DIFlagPublic | DIFlagPrototyped, spFlags: 0)
!289 = !DISubroutineType(types: !290)
!290 = !{null, !197, !291, !198, !248, !212, !248, !212}
!291 = !DICompositeType(tag: DW_TAG_structure_type, name: "_String_constructor_concat_tag", scope: !14, file: !42, line: 2195, flags: DIFlagFwdDecl, identifier: ".?AU_String_constructor_concat_tag@std@@")
!292 = !DISubprogram(name: "basic_string", scope: !41, file: !42, line: 2468, type: !293, scopeLine: 2468, flags: DIFlagPublic | DIFlagPrototyped, spFlags: 0)
!293 = !DISubroutineType(types: !294)
!294 = !{null, !197, !291, !295, !295}
!295 = !DIDerivedType(tag: DW_TAG_reference_type, baseType: !41, size: 64)
!296 = !DISubprogram(name: "_Move_assign", linkageName: "?_Move_assign@?$basic_string@DU?$char_traits@D@std@@V?$allocator@D@2@@std@@AEAAXAEAV12@U_Equal_allocators@2@@Z", scope: !41, file: !42, line: 2558, type: !297, scopeLine: 2558, flags: DIFlagPrototyped, spFlags: 0)
!297 = !DISubroutineType(types: !298)
!298 = !{null, !197, !295, !299}
!299 = !DICompositeType(tag: DW_TAG_structure_type, name: "_Equal_allocators", scope: !14, file: !55, line: 721, flags: DIFlagFwdDecl, identifier: ".?AU_Equal_allocators@std@@")
!300 = !DISubprogram(name: "_Move_assign", linkageName: "?_Move_assign@?$basic_string@DU?$char_traits@D@std@@V?$allocator@D@2@@std@@AEAAXAEAV12@U?$integral_constant@_N$00@2@@Z", scope: !41, file: !42, line: 2564, type: !301, scopeLine: 2564, flags: DIFlagPrototyped, spFlags: 0)
!301 = !DISubroutineType(types: !302)
!302 = !{null, !197, !295, !303}
!303 = !DIDerivedType(tag: DW_TAG_typedef, name: "_Propagate_allocators", scope: !14, file: !55, line: 722, baseType: !304)
!304 = !DIDerivedType(tag: DW_TAG_typedef, name: "true_type", scope: !14, file: !305, line: 41, baseType: !306)
!305 = !DIFile(filename: "Program Files (x86)\\Microsoft Visual Studio\\2019\\Community\\VC\\Tools\\MSVC\\14.27.29110\\include\\xtr1common", directory: "C:\\")
!306 = !DIDerivedType(tag: DW_TAG_typedef, name: "bool_constant<true>", scope: !14, file: !305, line: 39, baseType: !307)
!307 = distinct !DICompositeType(tag: DW_TAG_structure_type, name: "integral_constant<bool, true>", scope: !14, file: !305, line: 22, size: 8, flags: DIFlagTypePassByValue, elements: !308, templateParams: !317, identifier: ".?AU?$integral_constant@_N$00@std@@")
!308 = !{!309, !310, !316}
!309 = !DIDerivedType(tag: DW_TAG_member, name: "value", scope: !307, file: !305, line: 23, baseType: !48, flags: DIFlagStaticMember)
!310 = !DISubprogram(name: "operator bool", linkageName: "??B?$integral_constant@_N$00@std@@QEBA_NXZ", scope: !307, file: !305, line: 28, type: !311, scopeLine: 28, flags: DIFlagPrototyped, spFlags: 0)
!311 = !DISubroutineType(types: !312)
!312 = !{!313, !314}
!313 = !DIDerivedType(tag: DW_TAG_typedef, name: "value_type", scope: !307, file: !305, line: 25, baseType: !8)
!314 = !DIDerivedType(tag: DW_TAG_pointer_type, baseType: !315, size: 64, flags: DIFlagArtificial | DIFlagObjectPointer)
!315 = !DIDerivedType(tag: DW_TAG_const_type, baseType: !307)
!316 = !DISubprogram(name: "operator()", linkageName: "??R?$integral_constant@_N$00@std@@QEBA_NXZ", scope: !307, file: !305, line: 32, type: !311, scopeLine: 32, flags: DIFlagPrototyped, spFlags: 0)
!317 = !{!318, !319}
!318 = !DITemplateTypeParameter(name: "_Ty", type: !8)
!319 = !DITemplateValueParameter(name: "_Val", type: !8, value: i8 1)
!320 = !DISubprogram(name: "_Move_assign", linkageName: "?_Move_assign@?$basic_string@DU?$char_traits@D@std@@V?$allocator@D@2@@std@@AEAAXAEAV12@U?$integral_constant@_N$0A@@2@@Z", scope: !41, file: !42, line: 2577, type: !321, scopeLine: 2577, flags: DIFlagPrototyped, spFlags: 0)
!321 = !DISubroutineType(types: !322)
!322 = !{null, !197, !295, !323}
!323 = !DIDerivedType(tag: DW_TAG_typedef, name: "_No_propagate_allocators", scope: !14, file: !55, line: 723, baseType: !324)
!324 = !DIDerivedType(tag: DW_TAG_typedef, name: "false_type", scope: !14, file: !305, line: 42, baseType: !325)
!325 = !DIDerivedType(tag: DW_TAG_typedef, name: "bool_constant<false>", scope: !14, file: !305, line: 39, baseType: !326)
!326 = distinct !DICompositeType(tag: DW_TAG_structure_type, name: "integral_constant<bool, false>", scope: !14, file: !305, line: 22, size: 8, flags: DIFlagTypePassByValue, elements: !327, templateParams: !336, identifier: ".?AU?$integral_constant@_N$0A@@std@@")
!327 = !{!328, !329, !335}
!328 = !DIDerivedType(tag: DW_TAG_member, name: "value", scope: !326, file: !305, line: 23, baseType: !48, flags: DIFlagStaticMember)
!329 = !DISubprogram(name: "operator bool", linkageName: "??B?$integral_constant@_N$0A@@std@@QEBA_NXZ", scope: !326, file: !305, line: 28, type: !330, scopeLine: 28, flags: DIFlagPrototyped, spFlags: 0)
!330 = !DISubroutineType(types: !331)
!331 = !{!332, !333}
!332 = !DIDerivedType(tag: DW_TAG_typedef, name: "value_type", scope: !326, file: !305, line: 25, baseType: !8)
!333 = !DIDerivedType(tag: DW_TAG_pointer_type, baseType: !334, size: 64, flags: DIFlagArtificial | DIFlagObjectPointer)
!334 = !DIDerivedType(tag: DW_TAG_const_type, baseType: !326)
!335 = !DISubprogram(name: "operator()", linkageName: "??R?$integral_constant@_N$0A@@std@@QEBA_NXZ", scope: !326, file: !305, line: 32, type: !330, scopeLine: 32, flags: DIFlagPrototyped, spFlags: 0)
!336 = !{!318, !337}
!337 = !DITemplateValueParameter(name: "_Val", type: !8, value: i8 0)
!338 = !DISubprogram(name: "operator=", linkageName: "??4?$basic_string@DU?$char_traits@D@std@@V?$allocator@D@2@@std@@QEAAAEAV01@$$QEAV01@@Z", scope: !41, file: !42, line: 2586, type: !339, scopeLine: 2586, flags: DIFlagPublic | DIFlagPrototyped, spFlags: 0)
!339 = !DISubroutineType(types: !340)
!340 = !{!295, !197, !284}
!341 = !DISubprogram(name: "assign", linkageName: "?assign@?$basic_string@DU?$char_traits@D@std@@V?$allocator@D@2@@std@@QEAAAEAV12@$$QEAV12@@Z", scope: !41, file: !42, line: 2594, type: !339, scopeLine: 2594, flags: DIFlagPublic | DIFlagPrototyped, spFlags: 0)
!342 = !DISubprogram(name: "_Memcpy_val_from", linkageName: "?_Memcpy_val_from@?$basic_string@DU?$char_traits@D@std@@V?$allocator@D@2@@std@@AEAAXAEBV12@@Z", scope: !41, file: !42, line: 2600, type: !195, scopeLine: 2600, flags: DIFlagPrototyped, spFlags: 0)
!343 = !DISubprogram(name: "_Take_contents", linkageName: "?_Take_contents@?$basic_string@DU?$char_traits@D@std@@V?$allocator@D@2@@std@@AEAAXAEAV12@U?$integral_constant@_N$00@2@@Z", scope: !41, file: !42, line: 2609, type: !344, scopeLine: 2609, flags: DIFlagPrototyped, spFlags: 0)
!344 = !DISubroutineType(types: !345)
!345 = !{null, !197, !295, !304}
!346 = !DISubprogram(name: "_Take_contents", linkageName: "?_Take_contents@?$basic_string@DU?$char_traits@D@std@@V?$allocator@D@2@@std@@AEAAXAEAV12@U?$integral_constant@_N$0A@@2@@Z", scope: !41, file: !42, line: 2628, type: !347, scopeLine: 2628, flags: DIFlagPrototyped, spFlags: 0)
!347 = !DISubroutineType(types: !348)
!348 = !{null, !197, !295, !324}
!349 = !DISubprogram(name: "_Construct_lv_contents", linkageName: "?_Construct_lv_contents@?$basic_string@DU?$char_traits@D@std@@V?$allocator@D@2@@std@@AEAAXAEBV12@@Z", scope: !41, file: !42, line: 2650, type: !195, scopeLine: 2650, flags: DIFlagPrototyped, spFlags: 0)
!350 = !DISubprogram(name: "basic_string", scope: !41, file: !42, line: 2676, type: !351, scopeLine: 2676, flags: DIFlagPublic | DIFlagPrototyped, spFlags: 0)
!351 = !DISubroutineType(types: !352)
!352 = !{null, !197, !353, !77}
!353 = !DICompositeType(tag: DW_TAG_class_type, name: "initializer_list<char>", scope: !14, file: !354, line: 23, flags: DIFlagFwdDecl | DIFlagNonTrivial, identifier: ".?AV?$initializer_list@D@std@@")
!354 = !DIFile(filename: "Program Files (x86)\\Microsoft Visual Studio\\2019\\Community\\VC\\Tools\\MSVC\\14.27.29110\\include\\initializer_list", directory: "C:\\")
!355 = !DISubprogram(name: "operator=", linkageName: "??4?$basic_string@DU?$char_traits@D@std@@V?$allocator@D@2@@std@@QEAAAEAV01@V?$initializer_list@D@1@@Z", scope: !41, file: !42, line: 2685, type: !356, scopeLine: 2685, flags: DIFlagPublic | DIFlagPrototyped, spFlags: 0)
!356 = !DISubroutineType(types: !357)
!357 = !{!295, !197, !353}
!358 = !DISubprogram(name: "operator+=", linkageName: "??Y?$basic_string@DU?$char_traits@D@std@@V?$allocator@D@2@@std@@QEAAAEAV01@V?$initializer_list@D@1@@Z", scope: !41, file: !42, line: 2689, type: !356, scopeLine: 2689, flags: DIFlagPublic | DIFlagPrototyped, spFlags: 0)
!359 = !DISubprogram(name: "assign", linkageName: "?assign@?$basic_string@DU?$char_traits@D@std@@V?$allocator@D@2@@std@@QEAAAEAV12@V?$initializer_list@D@2@@Z", scope: !41, file: !42, line: 2693, type: !356, scopeLine: 2693, flags: DIFlagPublic | DIFlagPrototyped, spFlags: 0)
!360 = !DISubprogram(name: "append", linkageName: "?append@?$basic_string@DU?$char_traits@D@std@@V?$allocator@D@2@@std@@QEAAAEAV12@V?$initializer_list@D@2@@Z", scope: !41, file: !42, line: 2697, type: !356, scopeLine: 2697, flags: DIFlagPublic | DIFlagPrototyped, spFlags: 0)
!361 = !DISubprogram(name: "insert", linkageName: "?insert@?$basic_string@DU?$char_traits@D@std@@V?$allocator@D@2@@std@@QEAA?AV?$_String_iterator@V?$_String_val@U?$_Simple_types@D@std@@@std@@@2@V?$_String_const_iterator@V?$_String_val@U?$_Simple_types@D@std@@@std@@@2@V?$initializer_list@D@2@@Z", scope: !41, file: !42, line: 2701, type: !362, scopeLine: 2701, flags: DIFlagPublic | DIFlagPrototyped, spFlags: 0)
!362 = !DISubroutineType(types: !363)
!363 = !{!364, !197, !366, !369}
!364 = !DIDerivedType(tag: DW_TAG_typedef, name: "iterator", scope: !41, file: !42, line: 2235, baseType: !365)
!365 = !DICompositeType(tag: DW_TAG_class_type, name: "_String_iterator<std::_String_val<std::_Simple_types<char> > >", scope: !14, file: !42, line: 1986, flags: DIFlagFwdDecl | DIFlagNonTrivial, identifier: ".?AV?$_String_iterator@V?$_String_val@U?$_Simple_types@D@std@@@std@@@std@@")
!366 = !DIDerivedType(tag: DW_TAG_const_type, baseType: !367)
!367 = !DIDerivedType(tag: DW_TAG_typedef, name: "const_iterator", scope: !41, file: !42, line: 2236, baseType: !368)
!368 = !DICompositeType(tag: DW_TAG_class_type, name: "_String_const_iterator<std::_String_val<std::_Simple_types<char> > >", scope: !14, file: !42, line: 1758, flags: DIFlagFwdDecl | DIFlagNonTrivial, identifier: ".?AV?$_String_const_iterator@V?$_String_val@U?$_Simple_types@D@std@@@std@@@std@@")
!369 = !DIDerivedType(tag: DW_TAG_const_type, baseType: !353)
!370 = !DISubprogram(name: "replace", linkageName: "?replace@?$basic_string@DU?$char_traits@D@std@@V?$allocator@D@2@@std@@QEAAAEAV12@V?$_String_const_iterator@V?$_String_val@U?$_Simple_types@D@std@@@std@@@2@0V?$initializer_list@D@2@@Z", scope: !41, file: !42, line: 2710, type: !371, scopeLine: 2710, flags: DIFlagPublic | DIFlagPrototyped, spFlags: 0)
!371 = !DISubroutineType(types: !372)
!372 = !{!295, !197, !366, !366, !369}
!373 = !DISubprogram(name: "~basic_string", scope: !41, file: !42, line: 2722, type: !204, scopeLine: 2722, flags: DIFlagPublic | DIFlagPrototyped, spFlags: 0)
!374 = !DISubprogram(name: "_Copy_assign_val_from_small", linkageName: "?_Copy_assign_val_from_small@?$basic_string@DU?$char_traits@D@std@@V?$allocator@D@2@@std@@AEAAXAEBV12@@Z", scope: !41, file: !42, line: 2735, type: !195, scopeLine: 2735, flags: DIFlagPrototyped, spFlags: 0)
!375 = !DISubprogram(name: "_Copy_assign", linkageName: "?_Copy_assign@?$basic_string@DU?$char_traits@D@std@@V?$allocator@D@2@@std@@AEAAXAEBV12@U?$integral_constant@_N$0A@@2@@Z", scope: !41, file: !42, line: 2748, type: !376, scopeLine: 2748, flags: DIFlagPrototyped, spFlags: 0)
!376 = !DISubroutineType(types: !377)
!377 = !{null, !197, !198, !324}
!378 = !DISubprogram(name: "_Copy_assign", linkageName: "?_Copy_assign@?$basic_string@DU?$char_traits@D@std@@V?$allocator@D@2@@std@@AEAAXAEBV12@U?$integral_constant@_N$00@2@@Z", scope: !41, file: !42, line: 2753, type: !379, scopeLine: 2753, flags: DIFlagPrototyped, spFlags: 0)
!379 = !DISubroutineType(types: !380)
!380 = !{null, !197, !198, !304}
!381 = !DISubprogram(name: "operator=", linkageName: "??4?$basic_string@DU?$char_traits@D@std@@V?$allocator@D@2@@std@@QEAAAEAV01@AEBV01@@Z", scope: !41, file: !42, line: 2784, type: !382, scopeLine: 2784, flags: DIFlagPublic | DIFlagPrototyped, spFlags: 0)
!382 = !DISubroutineType(types: !383)
!383 = !{!295, !197, !198}
!384 = !DISubprogram(name: "operator=", linkageName: "??4?$basic_string@DU?$char_traits@D@std@@V?$allocator@D@2@@std@@QEAAAEAV01@QEBD@Z", scope: !41, file: !42, line: 2799, type: !385, scopeLine: 2799, flags: DIFlagPublic | DIFlagPrototyped, spFlags: 0)
!385 = !DISubroutineType(types: !386)
!386 = !{!295, !197, !248}
!387 = !DISubprogram(name: "operator=", linkageName: "??4?$basic_string@DU?$char_traits@D@std@@V?$allocator@D@2@@std@@QEAAAEAV01@D@Z", scope: !41, file: !42, line: 2803, type: !388, scopeLine: 2803, flags: DIFlagPublic | DIFlagPrototyped, spFlags: 0)
!388 = !DISubroutineType(types: !389)
!389 = !{!295, !197, !40}
!390 = !DISubprogram(name: "operator+=", linkageName: "??Y?$basic_string@DU?$char_traits@D@std@@V?$allocator@D@2@@std@@QEAAAEAV01@AEBV01@@Z", scope: !41, file: !42, line: 2811, type: !382, scopeLine: 2811, flags: DIFlagPublic | DIFlagPrototyped, spFlags: 0)
!391 = !DISubprogram(name: "operator+=", linkageName: "??Y?$basic_string@DU?$char_traits@D@std@@V?$allocator@D@2@@std@@QEAAAEAV01@QEBD@Z", scope: !41, file: !42, line: 2822, type: !385, scopeLine: 2822, flags: DIFlagPublic | DIFlagPrototyped, spFlags: 0)
!392 = !DISubprogram(name: "operator+=", linkageName: "??Y?$basic_string@DU?$char_traits@D@std@@V?$allocator@D@2@@std@@QEAAAEAV01@D@Z", scope: !41, file: !42, line: 2826, type: !393, scopeLine: 2826, flags: DIFlagPublic | DIFlagPrototyped, spFlags: 0)
!393 = !DISubroutineType(types: !394)
!394 = !{!295, !197, !33}
!395 = !DISubprogram(name: "append", linkageName: "?append@?$basic_string@DU?$char_traits@D@std@@V?$allocator@D@2@@std@@QEAAAEAV12@AEBV12@@Z", scope: !41, file: !42, line: 2831, type: !382, scopeLine: 2831, flags: DIFlagPublic | DIFlagPrototyped, spFlags: 0)
!396 = !DISubprogram(name: "append", linkageName: "?append@?$basic_string@DU?$char_traits@D@std@@V?$allocator@D@2@@std@@QEAAAEAV12@AEBV12@_K_K@Z", scope: !41, file: !42, line: 2835, type: !397, scopeLine: 2835, flags: DIFlagPublic | DIFlagPrototyped, spFlags: 0)
!397 = !DISubroutineType(types: !398)
!398 = !{!295, !197, !198, !212, !213}
!399 = !DISubprogram(name: "append", linkageName: "?append@?$basic_string@DU?$char_traits@D@std@@V?$allocator@D@2@@std@@QEAAAEAV12@QEBD_K@Z", scope: !41, file: !42, line: 2857, type: !400, scopeLine: 2857, flags: DIFlagPublic | DIFlagPrototyped, spFlags: 0)
!400 = !DISubroutineType(types: !401)
!401 = !{!295, !197, !248, !212}
!402 = !DISubprogram(name: "append", linkageName: "?append@?$basic_string@DU?$char_traits@D@std@@V?$allocator@D@2@@std@@QEAAAEAV12@QEBD@Z", scope: !41, file: !42, line: 2879, type: !385, scopeLine: 2879, flags: DIFlagPublic | DIFlagPrototyped, spFlags: 0)
!403 = !DISubprogram(name: "append", linkageName: "?append@?$basic_string@DU?$char_traits@D@std@@V?$allocator@D@2@@std@@QEAAAEAV12@_KD@Z", scope: !41, file: !42, line: 2883, type: !404, scopeLine: 2883, flags: DIFlagPublic | DIFlagPrototyped, spFlags: 0)
!404 = !DISubroutineType(types: !405)
!405 = !{!295, !197, !212, !40}
!406 = !DISubprogram(name: "assign", linkageName: "?assign@?$basic_string@DU?$char_traits@D@std@@V?$allocator@D@2@@std@@QEAAAEAV12@AEBV12@@Z", scope: !41, file: !42, line: 2937, type: !382, scopeLine: 2937, flags: DIFlagPublic | DIFlagPrototyped, spFlags: 0)
!407 = !DISubprogram(name: "assign", linkageName: "?assign@?$basic_string@DU?$char_traits@D@std@@V?$allocator@D@2@@std@@QEAAAEAV12@AEBV12@_K_K@Z", scope: !41, file: !42, line: 2942, type: !397, scopeLine: 2942, flags: DIFlagPublic | DIFlagPrototyped, spFlags: 0)
!408 = !DISubprogram(name: "assign", linkageName: "?assign@?$basic_string@DU?$char_traits@D@std@@V?$allocator@D@2@@std@@QEAAAEAV12@QEBD_K@Z", scope: !41, file: !42, line: 2964, type: !400, scopeLine: 2964, flags: DIFlagPublic | DIFlagPrototyped, spFlags: 0)
!409 = !DISubprogram(name: "assign", linkageName: "?assign@?$basic_string@DU?$char_traits@D@std@@V?$allocator@D@2@@std@@QEAAAEAV12@QEBD@Z", scope: !41, file: !42, line: 2983, type: !385, scopeLine: 2983, flags: DIFlagPublic | DIFlagPrototyped, spFlags: 0)
!410 = !DISubprogram(name: "assign", linkageName: "?assign@?$basic_string@DU?$char_traits@D@std@@V?$allocator@D@2@@std@@QEAAAEAV12@_KD@Z", scope: !41, file: !42, line: 2987, type: !404, scopeLine: 2987, flags: DIFlagPublic | DIFlagPrototyped, spFlags: 0)
!411 = !DISubprogram(name: "insert", linkageName: "?insert@?$basic_string@DU?$char_traits@D@std@@V?$allocator@D@2@@std@@QEAAAEAV12@_KAEBV12@@Z", scope: !41, file: !42, line: 3050, type: !412, scopeLine: 3050, flags: DIFlagPublic | DIFlagPrototyped, spFlags: 0)
!412 = !DISubroutineType(types: !413)
!413 = !{!295, !197, !212, !198}
!414 = !DISubprogram(name: "insert", linkageName: "?insert@?$basic_string@DU?$char_traits@D@std@@V?$allocator@D@2@@std@@QEAAAEAV12@_KAEBV12@0_K@Z", scope: !41, file: !42, line: 3054, type: !415, scopeLine: 3054, flags: DIFlagPublic | DIFlagPrototyped, spFlags: 0)
!415 = !DISubroutineType(types: !416)
!416 = !{!295, !197, !212, !198, !212, !213}
!417 = !DISubprogram(name: "insert", linkageName: "?insert@?$basic_string@DU?$char_traits@D@std@@V?$allocator@D@2@@std@@QEAAAEAV12@_KQEBD0@Z", scope: !41, file: !42, line: 3077, type: !418, scopeLine: 3077, flags: DIFlagPublic | DIFlagPrototyped, spFlags: 0)
!418 = !DISubroutineType(types: !419)
!419 = !{!295, !197, !212, !248, !212}
!420 = !DISubprogram(name: "insert", linkageName: "?insert@?$basic_string@DU?$char_traits@D@std@@V?$allocator@D@2@@std@@QEAAAEAV12@_KQEBD@Z", scope: !41, file: !42, line: 3116, type: !421, scopeLine: 3116, flags: DIFlagPublic | DIFlagPrototyped, spFlags: 0)
!421 = !DISubroutineType(types: !422)
!422 = !{!295, !197, !212, !248}
!423 = !DISubprogram(name: "insert", linkageName: "?insert@?$basic_string@DU?$char_traits@D@std@@V?$allocator@D@2@@std@@QEAAAEAV12@_K0D@Z", scope: !41, file: !42, line: 3120, type: !424, scopeLine: 3120, flags: DIFlagPublic | DIFlagPrototyped, spFlags: 0)
!424 = !DISubroutineType(types: !425)
!425 = !{!295, !197, !212, !212, !40}
!426 = !DISubprogram(name: "insert", linkageName: "?insert@?$basic_string@DU?$char_traits@D@std@@V?$allocator@D@2@@std@@QEAA?AV?$_String_iterator@V?$_String_val@U?$_Simple_types@D@std@@@std@@@2@V?$_String_const_iterator@V?$_String_val@U?$_Simple_types@D@std@@@std@@@2@D@Z", scope: !41, file: !42, line: 3144, type: !427, scopeLine: 3144, flags: DIFlagPublic | DIFlagPrototyped, spFlags: 0)
!427 = !DISubroutineType(types: !428)
!428 = !{!364, !197, !366, !40}
!429 = !DISubprogram(name: "insert", linkageName: "?insert@?$basic_string@DU?$char_traits@D@std@@V?$allocator@D@2@@std@@QEAA?AV?$_String_iterator@V?$_String_val@U?$_Simple_types@D@std@@@std@@@2@V?$_String_const_iterator@V?$_String_val@U?$_Simple_types@D@std@@@std@@@2@_KD@Z", scope: !41, file: !42, line: 3153, type: !430, scopeLine: 3153, flags: DIFlagPublic | DIFlagPrototyped, spFlags: 0)
!430 = !DISubroutineType(types: !431)
!431 = !{!364, !197, !366, !212, !40}
!432 = !DISubprogram(name: "erase", linkageName: "?erase@?$basic_string@DU?$char_traits@D@std@@V?$allocator@D@2@@std@@QEAAAEAV12@_K@Z", scope: !41, file: !42, line: 3209, type: !433, scopeLine: 3209, flags: DIFlagPublic | DIFlagPrototyped, spFlags: 0)
!433 = !DISubroutineType(types: !434)
!434 = !{!295, !197, !212}
!435 = !DISubprogram(name: "erase", linkageName: "?erase@?$basic_string@DU?$char_traits@D@std@@V?$allocator@D@2@@std@@QEAAAEAV12@_K_K@Z", scope: !41, file: !42, line: 3215, type: !436, scopeLine: 3215, flags: DIFlagPublic | DIFlagPrototyped, spFlags: 0)
!436 = !DISubroutineType(types: !437)
!437 = !{!295, !197, !212, !213}
!438 = !DISubprogram(name: "erase", linkageName: "?erase@?$basic_string@DU?$char_traits@D@std@@V?$allocator@D@2@@std@@QEAA?AV?$_String_iterator@V?$_String_val@U?$_Simple_types@D@std@@@std@@@2@V?$_String_const_iterator@V?$_String_val@U?$_Simple_types@D@std@@@std@@@2@@Z", scope: !41, file: !42, line: 3227, type: !439, scopeLine: 3227, flags: DIFlagPublic | DIFlagPrototyped, spFlags: 0)
!439 = !DISubroutineType(types: !440)
!440 = !{!364, !197, !366}
!441 = !DISubprogram(name: "erase", linkageName: "?erase@?$basic_string@DU?$char_traits@D@std@@V?$allocator@D@2@@std@@QEAA?AV?$_String_iterator@V?$_String_val@U?$_Simple_types@D@std@@@std@@@2@V?$_String_const_iterator@V?$_String_val@U?$_Simple_types@D@std@@@std@@@2@0@Z", scope: !41, file: !42, line: 3236, type: !442, scopeLine: 3236, flags: DIFlagPublic | DIFlagPrototyped, spFlags: 0)
!442 = !DISubroutineType(types: !443)
!443 = !{!364, !197, !366, !366}
!444 = !DISubprogram(name: "clear", linkageName: "?clear@?$basic_string@DU?$char_traits@D@std@@V?$allocator@D@2@@std@@QEAAXXZ", scope: !41, file: !42, line: 3246, type: !204, scopeLine: 3246, flags: DIFlagPublic | DIFlagPrototyped, spFlags: 0)
!445 = !DISubprogram(name: "replace", linkageName: "?replace@?$basic_string@DU?$char_traits@D@std@@V?$allocator@D@2@@std@@QEAAAEAV12@_K0AEBV12@@Z", scope: !41, file: !42, line: 3250, type: !446, scopeLine: 3250, flags: DIFlagPublic | DIFlagPrototyped, spFlags: 0)
!446 = !DISubroutineType(types: !447)
!447 = !{!295, !197, !212, !212, !198}
!448 = !DISubprogram(name: "replace", linkageName: "?replace@?$basic_string@DU?$char_traits@D@std@@V?$allocator@D@2@@std@@QEAAAEAV12@_K_KAEBV12@01@Z", scope: !41, file: !42, line: 3255, type: !449, scopeLine: 3255, flags: DIFlagPublic | DIFlagPrototyped, spFlags: 0)
!449 = !DISubroutineType(types: !450)
!450 = !{!295, !197, !212, !213, !198, !212, !213}
!451 = !DISubprogram(name: "replace", linkageName: "?replace@?$basic_string@DU?$char_traits@D@std@@V?$allocator@D@2@@std@@QEAAAEAV12@_K_KQEBD0@Z", scope: !41, file: !42, line: 3280, type: !452, scopeLine: 3280, flags: DIFlagPublic | DIFlagPrototyped, spFlags: 0)
!452 = !DISubroutineType(types: !453)
!453 = !{!295, !197, !212, !213, !248, !212}
!454 = !DISubprogram(name: "replace", linkageName: "?replace@?$basic_string@DU?$char_traits@D@std@@V?$allocator@D@2@@std@@QEAAAEAV12@_K0QEBD@Z", scope: !41, file: !42, line: 3340, type: !455, scopeLine: 3340, flags: DIFlagPublic | DIFlagPrototyped, spFlags: 0)
!455 = !DISubroutineType(types: !456)
!456 = !{!295, !197, !212, !212, !248}
!457 = !DISubprogram(name: "replace", linkageName: "?replace@?$basic_string@DU?$char_traits@D@std@@V?$allocator@D@2@@std@@QEAAAEAV12@_K_K0D@Z", scope: !41, file: !42, line: 3345, type: !458, scopeLine: 3345, flags: DIFlagPublic | DIFlagPrototyped, spFlags: 0)
!458 = !DISubroutineType(types: !459)
!459 = !{!295, !197, !212, !213, !212, !40}
!460 = !DISubprogram(name: "replace", linkageName: "?replace@?$basic_string@DU?$char_traits@D@std@@V?$allocator@D@2@@std@@QEAAAEAV12@V?$_String_const_iterator@V?$_String_val@U?$_Simple_types@D@std@@@std@@@2@0AEBV12@@Z", scope: !41, file: !42, line: 3377, type: !461, scopeLine: 3377, flags: DIFlagPublic | DIFlagPrototyped, spFlags: 0)
!461 = !DISubroutineType(types: !462)
!462 = !{!295, !197, !366, !366, !198}
!463 = !DISubprogram(name: "replace", linkageName: "?replace@?$basic_string@DU?$char_traits@D@std@@V?$allocator@D@2@@std@@QEAAAEAV12@V?$_String_const_iterator@V?$_String_val@U?$_Simple_types@D@std@@@std@@@2@0QEBD_K@Z", scope: !41, file: !42, line: 3400, type: !464, scopeLine: 3400, flags: DIFlagPublic | DIFlagPrototyped, spFlags: 0)
!464 = !DISubroutineType(types: !465)
!465 = !{!295, !197, !366, !366, !248, !212}
!466 = !DISubprogram(name: "replace", linkageName: "?replace@?$basic_string@DU?$char_traits@D@std@@V?$allocator@D@2@@std@@QEAAAEAV12@V?$_String_const_iterator@V?$_String_val@U?$_Simple_types@D@std@@@std@@@2@0QEBD@Z", scope: !41, file: !42, line: 3411, type: !467, scopeLine: 3411, flags: DIFlagPublic | DIFlagPrototyped, spFlags: 0)
!467 = !DISubroutineType(types: !468)
!468 = !{!295, !197, !366, !366, !248}
!469 = !DISubprogram(name: "replace", linkageName: "?replace@?$basic_string@DU?$char_traits@D@std@@V?$allocator@D@2@@std@@QEAAAEAV12@V?$_String_const_iterator@V?$_String_val@U?$_Simple_types@D@std@@@std@@@2@0_KD@Z", scope: !41, file: !42, line: 3421, type: !470, scopeLine: 3421, flags: DIFlagPublic | DIFlagPrototyped, spFlags: 0)
!470 = !DISubroutineType(types: !471)
!471 = !{!295, !197, !366, !366, !212, !40}
!472 = !DISubprogram(name: "begin", linkageName: "?begin@?$basic_string@DU?$char_traits@D@std@@V?$allocator@D@2@@std@@QEAA?AV?$_String_iterator@V?$_String_val@U?$_Simple_types@D@std@@@std@@@2@XZ", scope: !41, file: !42, line: 3485, type: !473, scopeLine: 3485, flags: DIFlagPublic | DIFlagPrototyped, spFlags: 0)
!473 = !DISubroutineType(types: !474)
!474 = !{!364, !197}
!475 = !DISubprogram(name: "begin", linkageName: "?begin@?$basic_string@DU?$char_traits@D@std@@V?$allocator@D@2@@std@@QEBA?AV?$_String_const_iterator@V?$_String_val@U?$_Simple_types@D@std@@@std@@@2@XZ", scope: !41, file: !42, line: 3489, type: !476, scopeLine: 3489, flags: DIFlagPublic | DIFlagPrototyped, spFlags: 0)
!476 = !DISubroutineType(types: !477)
!477 = !{!367, !478}
!478 = !DIDerivedType(tag: DW_TAG_pointer_type, baseType: !199, size: 64, flags: DIFlagArtificial | DIFlagObjectPointer)
!479 = !DISubprogram(name: "end", linkageName: "?end@?$basic_string@DU?$char_traits@D@std@@V?$allocator@D@2@@std@@QEAA?AV?$_String_iterator@V?$_String_val@U?$_Simple_types@D@std@@@std@@@2@XZ", scope: !41, file: !42, line: 3493, type: !473, scopeLine: 3493, flags: DIFlagPublic | DIFlagPrototyped, spFlags: 0)
!480 = !DISubprogram(name: "end", linkageName: "?end@?$basic_string@DU?$char_traits@D@std@@V?$allocator@D@2@@std@@QEBA?AV?$_String_const_iterator@V?$_String_val@U?$_Simple_types@D@std@@@std@@@2@XZ", scope: !41, file: !42, line: 3499, type: !476, scopeLine: 3499, flags: DIFlagPublic | DIFlagPrototyped, spFlags: 0)
!481 = !DISubprogram(name: "_Unchecked_begin", linkageName: "?_Unchecked_begin@?$basic_string@DU?$char_traits@D@std@@V?$allocator@D@2@@std@@QEAAPEADXZ", scope: !41, file: !42, line: 3505, type: !482, scopeLine: 3505, flags: DIFlagPublic | DIFlagPrototyped, spFlags: 0)
!482 = !DISubroutineType(types: !483)
!483 = !{!32, !197}
!484 = !DISubprogram(name: "_Unchecked_begin", linkageName: "?_Unchecked_begin@?$basic_string@DU?$char_traits@D@std@@V?$allocator@D@2@@std@@QEBAPEBDXZ", scope: !41, file: !42, line: 3509, type: !485, scopeLine: 3509, flags: DIFlagPublic | DIFlagPrototyped, spFlags: 0)
!485 = !DISubroutineType(types: !486)
!486 = !{!39, !478}
!487 = !DISubprogram(name: "_Unchecked_end", linkageName: "?_Unchecked_end@?$basic_string@DU?$char_traits@D@std@@V?$allocator@D@2@@std@@QEAAPEADXZ", scope: !41, file: !42, line: 3513, type: !482, scopeLine: 3513, flags: DIFlagPublic | DIFlagPrototyped, spFlags: 0)
!488 = !DISubprogram(name: "_Unchecked_end", linkageName: "?_Unchecked_end@?$basic_string@DU?$char_traits@D@std@@V?$allocator@D@2@@std@@QEBAPEBDXZ", scope: !41, file: !42, line: 3517, type: !485, scopeLine: 3517, flags: DIFlagPublic | DIFlagPrototyped, spFlags: 0)
!489 = !DISubprogram(name: "rbegin", linkageName: "?rbegin@?$basic_string@DU?$char_traits@D@std@@V?$allocator@D@2@@std@@QEAA?AV?$reverse_iterator@V?$_String_iterator@V?$_String_val@U?$_Simple_types@D@std@@@std@@@std@@@2@XZ", scope: !41, file: !42, line: 3521, type: !490, scopeLine: 3521, flags: DIFlagPublic | DIFlagPrototyped, spFlags: 0)
!490 = !DISubroutineType(types: !491)
!491 = !{!492, !197}
!492 = !DIDerivedType(tag: DW_TAG_typedef, name: "reverse_iterator", scope: !41, file: !42, line: 2238, baseType: !493)
!493 = !DICompositeType(tag: DW_TAG_class_type, name: "reverse_iterator<std::_String_iterator<std::_String_val<std::_Simple_types<char> > > >", scope: !14, file: !268, line: 1808, flags: DIFlagFwdDecl | DIFlagNonTrivial, identifier: ".?AV?$reverse_iterator@V?$_String_iterator@V?$_String_val@U?$_Simple_types@D@std@@@std@@@std@@@std@@")
!494 = !DISubprogram(name: "rbegin", linkageName: "?rbegin@?$basic_string@DU?$char_traits@D@std@@V?$allocator@D@2@@std@@QEBA?AV?$reverse_iterator@V?$_String_const_iterator@V?$_String_val@U?$_Simple_types@D@std@@@std@@@std@@@2@XZ", scope: !41, file: !42, line: 3525, type: !495, scopeLine: 3525, flags: DIFlagPublic | DIFlagPrototyped, spFlags: 0)
!495 = !DISubroutineType(types: !496)
!496 = !{!497, !478}
!497 = !DIDerivedType(tag: DW_TAG_typedef, name: "const_reverse_iterator", scope: !41, file: !42, line: 2239, baseType: !498)
!498 = !DICompositeType(tag: DW_TAG_class_type, name: "reverse_iterator<std::_String_const_iterator<std::_String_val<std::_Simple_types<char> > > >", scope: !14, file: !268, line: 1808, flags: DIFlagFwdDecl | DIFlagNonTrivial, identifier: ".?AV?$reverse_iterator@V?$_String_const_iterator@V?$_String_val@U?$_Simple_types@D@std@@@std@@@std@@@std@@")
!499 = !DISubprogram(name: "rend", linkageName: "?rend@?$basic_string@DU?$char_traits@D@std@@V?$allocator@D@2@@std@@QEAA?AV?$reverse_iterator@V?$_String_iterator@V?$_String_val@U?$_Simple_types@D@std@@@std@@@std@@@2@XZ", scope: !41, file: !42, line: 3529, type: !490, scopeLine: 3529, flags: DIFlagPublic | DIFlagPrototyped, spFlags: 0)
!500 = !DISubprogram(name: "rend", linkageName: "?rend@?$basic_string@DU?$char_traits@D@std@@V?$allocator@D@2@@std@@QEBA?AV?$reverse_iterator@V?$_String_const_iterator@V?$_String_val@U?$_Simple_types@D@std@@@std@@@std@@@2@XZ", scope: !41, file: !42, line: 3533, type: !495, scopeLine: 3533, flags: DIFlagPublic | DIFlagPrototyped, spFlags: 0)
!501 = !DISubprogram(name: "cbegin", linkageName: "?cbegin@?$basic_string@DU?$char_traits@D@std@@V?$allocator@D@2@@std@@QEBA?AV?$_String_const_iterator@V?$_String_val@U?$_Simple_types@D@std@@@std@@@2@XZ", scope: !41, file: !42, line: 3537, type: !476, scopeLine: 3537, flags: DIFlagPublic | DIFlagPrototyped, spFlags: 0)
!502 = !DISubprogram(name: "cend", linkageName: "?cend@?$basic_string@DU?$char_traits@D@std@@V?$allocator@D@2@@std@@QEBA?AV?$_String_const_iterator@V?$_String_val@U?$_Simple_types@D@std@@@std@@@2@XZ", scope: !41, file: !42, line: 3541, type: !476, scopeLine: 3541, flags: DIFlagPublic | DIFlagPrototyped, spFlags: 0)
!503 = !DISubprogram(name: "crbegin", linkageName: "?crbegin@?$basic_string@DU?$char_traits@D@std@@V?$allocator@D@2@@std@@QEBA?AV?$reverse_iterator@V?$_String_const_iterator@V?$_String_val@U?$_Simple_types@D@std@@@std@@@std@@@2@XZ", scope: !41, file: !42, line: 3545, type: !495, scopeLine: 3545, flags: DIFlagPublic | DIFlagPrototyped, spFlags: 0)
!504 = !DISubprogram(name: "crend", linkageName: "?crend@?$basic_string@DU?$char_traits@D@std@@V?$allocator@D@2@@std@@QEBA?AV?$reverse_iterator@V?$_String_const_iterator@V?$_String_val@U?$_Simple_types@D@std@@@std@@@std@@@2@XZ", scope: !41, file: !42, line: 3549, type: !495, scopeLine: 3549, flags: DIFlagPublic | DIFlagPrototyped, spFlags: 0)
!505 = !DISubprogram(name: "shrink_to_fit", linkageName: "?shrink_to_fit@?$basic_string@DU?$char_traits@D@std@@V?$allocator@D@2@@std@@QEAAXXZ", scope: !41, file: !42, line: 3553, type: !204, scopeLine: 3553, flags: DIFlagPublic | DIFlagPrototyped, spFlags: 0)
!506 = !DISubprogram(name: "at", linkageName: "?at@?$basic_string@DU?$char_traits@D@std@@V?$allocator@D@2@@std@@QEAAAEAD_K@Z", scope: !41, file: !42, line: 3576, type: !507, scopeLine: 3576, flags: DIFlagPublic | DIFlagPrototyped, spFlags: 0)
!507 = !DISubroutineType(types: !508)
!508 = !{!509, !197, !212}
!509 = !DIDerivedType(tag: DW_TAG_typedef, name: "reference", scope: !41, file: !42, line: 2232, baseType: !510)
!510 = !DIDerivedType(tag: DW_TAG_reference_type, baseType: !511, size: 64)
!511 = !DIDerivedType(tag: DW_TAG_typedef, name: "value_type", scope: !41, file: !42, line: 2227, baseType: !33)
!512 = !DISubprogram(name: "at", linkageName: "?at@?$basic_string@DU?$char_traits@D@std@@V?$allocator@D@2@@std@@QEBAAEBD_K@Z", scope: !41, file: !42, line: 3581, type: !513, scopeLine: 3581, flags: DIFlagPublic | DIFlagPrototyped, spFlags: 0)
!513 = !DISubroutineType(types: !514)
!514 = !{!515, !478, !212}
!515 = !DIDerivedType(tag: DW_TAG_typedef, name: "const_reference", scope: !41, file: !42, line: 2233, baseType: !516)
!516 = !DIDerivedType(tag: DW_TAG_reference_type, baseType: !517, size: 64)
!517 = !DIDerivedType(tag: DW_TAG_const_type, baseType: !511)
!518 = !DISubprogram(name: "operator[]", linkageName: "??A?$basic_string@DU?$char_traits@D@std@@V?$allocator@D@2@@std@@QEAAAEAD_K@Z", scope: !41, file: !42, line: 3586, type: !507, scopeLine: 3586, flags: DIFlagPublic | DIFlagPrototyped, spFlags: 0)
!519 = !DISubprogram(name: "operator[]", linkageName: "??A?$basic_string@DU?$char_traits@D@std@@V?$allocator@D@2@@std@@QEBAAEBD_K@Z", scope: !41, file: !42, line: 3593, type: !513, scopeLine: 3593, flags: DIFlagPublic | DIFlagPrototyped, spFlags: 0)
!520 = !DISubprogram(name: "push_back", linkageName: "?push_back@?$basic_string@DU?$char_traits@D@std@@V?$allocator@D@2@@std@@QEAAXD@Z", scope: !41, file: !42, line: 3607, type: !521, scopeLine: 3607, flags: DIFlagPublic | DIFlagPrototyped, spFlags: 0)
!521 = !DISubroutineType(types: !522)
!522 = !{null, !197, !40}
!523 = !DISubprogram(name: "pop_back", linkageName: "?pop_back@?$basic_string@DU?$char_traits@D@std@@V?$allocator@D@2@@std@@QEAAXXZ", scope: !41, file: !42, line: 3627, type: !204, scopeLine: 3627, flags: DIFlagPublic | DIFlagPrototyped, spFlags: 0)
!524 = !DISubprogram(name: "front", linkageName: "?front@?$basic_string@DU?$char_traits@D@std@@V?$allocator@D@2@@std@@QEAAAEADXZ", scope: !41, file: !42, line: 3635, type: !525, scopeLine: 3635, flags: DIFlagPublic | DIFlagPrototyped, spFlags: 0)
!525 = !DISubroutineType(types: !526)
!526 = !{!509, !197}
!527 = !DISubprogram(name: "front", linkageName: "?front@?$basic_string@DU?$char_traits@D@std@@V?$allocator@D@2@@std@@QEBAAEBDXZ", scope: !41, file: !42, line: 3643, type: !528, scopeLine: 3643, flags: DIFlagPublic | DIFlagPrototyped, spFlags: 0)
!528 = !DISubroutineType(types: !529)
!529 = !{!515, !478}
!530 = !DISubprogram(name: "back", linkageName: "?back@?$basic_string@DU?$char_traits@D@std@@V?$allocator@D@2@@std@@QEAAAEADXZ", scope: !41, file: !42, line: 3651, type: !525, scopeLine: 3651, flags: DIFlagPublic | DIFlagPrototyped, spFlags: 0)
!531 = !DISubprogram(name: "back", linkageName: "?back@?$basic_string@DU?$char_traits@D@std@@V?$allocator@D@2@@std@@QEBAAEBDXZ", scope: !41, file: !42, line: 3659, type: !528, scopeLine: 3659, flags: DIFlagPublic | DIFlagPrototyped, spFlags: 0)
!532 = !DISubprogram(name: "c_str", linkageName: "?c_str@?$basic_string@DU?$char_traits@D@std@@V?$allocator@D@2@@std@@QEBAPEBDXZ", scope: !41, file: !42, line: 3667, type: !485, scopeLine: 3667, flags: DIFlagPublic | DIFlagPrototyped, spFlags: 0)
!533 = !DISubprogram(name: "data", linkageName: "?data@?$basic_string@DU?$char_traits@D@std@@V?$allocator@D@2@@std@@QEBAPEBDXZ", scope: !41, file: !42, line: 3671, type: !485, scopeLine: 3671, flags: DIFlagPublic | DIFlagPrototyped, spFlags: 0)
!534 = !DISubprogram(name: "length", linkageName: "?length@?$basic_string@DU?$char_traits@D@std@@V?$allocator@D@2@@std@@QEBA_KXZ", scope: !41, file: !42, line: 3681, type: !535, scopeLine: 3681, flags: DIFlagPublic | DIFlagPrototyped, spFlags: 0)
!535 = !DISubroutineType(types: !536)
!536 = !{!213, !478}
!537 = !DISubprogram(name: "size", linkageName: "?size@?$basic_string@DU?$char_traits@D@std@@V?$allocator@D@2@@std@@QEBA_KXZ", scope: !41, file: !42, line: 3685, type: !535, scopeLine: 3685, flags: DIFlagPublic | DIFlagPrototyped, spFlags: 0)
!538 = !DISubprogram(name: "max_size", linkageName: "?max_size@?$basic_string@DU?$char_traits@D@std@@V?$allocator@D@2@@std@@QEBA_KXZ", scope: !41, file: !42, line: 3689, type: !535, scopeLine: 3689, flags: DIFlagPublic | DIFlagPrototyped, spFlags: 0)
!539 = !DISubprogram(name: "resize", linkageName: "?resize@?$basic_string@DU?$char_traits@D@std@@V?$allocator@D@2@@std@@QEAAX_KD@Z", scope: !41, file: !42, line: 3698, type: !259, scopeLine: 3698, flags: DIFlagPublic | DIFlagPrototyped, spFlags: 0)
!540 = !DISubprogram(name: "capacity", linkageName: "?capacity@?$basic_string@DU?$char_traits@D@std@@V?$allocator@D@2@@std@@QEBA_KXZ", scope: !41, file: !42, line: 3708, type: !535, scopeLine: 3708, flags: DIFlagPublic | DIFlagPrototyped, spFlags: 0)
!541 = !DISubprogram(name: "reserve", linkageName: "?reserve@?$basic_string@DU?$char_traits@D@std@@V?$allocator@D@2@@std@@QEAAX_K@Z", scope: !41, file: !42, line: 3733, type: !542, scopeLine: 3733, flags: DIFlagPublic | DIFlagPrototyped, spFlags: 0)
!542 = !DISubroutineType(types: !543)
!543 = !{null, !197, !212}
!544 = !DISubprogram(name: "empty", linkageName: "?empty@?$basic_string@DU?$char_traits@D@std@@V?$allocator@D@2@@std@@QEBA_NXZ", scope: !41, file: !42, line: 3763, type: !545, scopeLine: 3763, flags: DIFlagPublic | DIFlagPrototyped, spFlags: 0)
!545 = !DISubroutineType(types: !546)
!546 = !{!8, !478}
!547 = !DISubprogram(name: "copy", linkageName: "?copy@?$basic_string@DU?$char_traits@D@std@@V?$allocator@D@2@@std@@QEBA_KQEAD_K_K@Z", scope: !41, file: !42, line: 3767, type: !548, scopeLine: 3767, flags: DIFlagPublic | DIFlagPrototyped, spFlags: 0)
!548 = !DISubroutineType(types: !549)
!549 = !{!213, !478, !81, !213, !212}
!550 = !DISubprogram(name: "_Copy_s", linkageName: "?_Copy_s@?$basic_string@DU?$char_traits@D@std@@V?$allocator@D@2@@std@@QEBA_KQEAD_K_K1@Z", scope: !41, file: !42, line: 3775, type: !551, scopeLine: 3775, flags: DIFlagPublic | DIFlagPrototyped, spFlags: 0)
!551 = !DISubroutineType(types: !552)
!552 = !{!213, !478, !81, !212, !213, !212}
!553 = !DISubprogram(name: "_Swap_data", linkageName: "?_Swap_data@?$basic_string@DU?$char_traits@D@std@@V?$allocator@D@2@@std@@QEAAXAEAV12@U?$integral_constant@_N$00@2@@Z", scope: !41, file: !42, line: 3784, type: !344, scopeLine: 3784, flags: DIFlagPublic | DIFlagPrototyped, spFlags: 0)
!554 = !DISubprogram(name: "_Swap_bx_large_with_small", linkageName: "?_Swap_bx_large_with_small@?$basic_string@DU?$char_traits@D@std@@V?$allocator@D@2@@std@@QEAAXAEAV?$_String_val@U?$_Simple_types@D@std@@@2@0@Z", scope: !41, file: !42, line: 3796, type: !555, scopeLine: 3796, flags: DIFlagPublic | DIFlagPrototyped, spFlags: 0)
!555 = !DISubroutineType(types: !556)
!556 = !{null, !197, !557, !557}
!557 = !DIDerivedType(tag: DW_TAG_reference_type, baseType: !558, size: 64)
!558 = !DIDerivedType(tag: DW_TAG_typedef, name: "_Scary_val", scope: !41, file: !42, line: 2212, baseType: !96)
!559 = !DISubprogram(name: "_Swap_data", linkageName: "?_Swap_data@?$basic_string@DU?$char_traits@D@std@@V?$allocator@D@2@@std@@QEAAXAEAV12@U?$integral_constant@_N$0A@@2@@Z", scope: !41, file: !42, line: 3804, type: !347, scopeLine: 3804, flags: DIFlagPublic | DIFlagPrototyped, spFlags: 0)
!560 = !DISubprogram(name: "swap", linkageName: "?swap@?$basic_string@DU?$char_traits@D@std@@V?$allocator@D@2@@std@@QEAAXAEAV12@@Z", scope: !41, file: !42, line: 3831, type: !561, scopeLine: 3831, flags: DIFlagPublic | DIFlagPrototyped, spFlags: 0)
!561 = !DISubroutineType(types: !562)
!562 = !{null, !197, !295}
!563 = !DISubprogram(name: "find", linkageName: "?find@?$basic_string@DU?$char_traits@D@std@@V?$allocator@D@2@@std@@QEBA_KAEBV12@_K@Z", scope: !41, file: !42, line: 3865, type: !564, scopeLine: 3865, flags: DIFlagPublic | DIFlagPrototyped, spFlags: 0)
!564 = !DISubroutineType(types: !565)
!565 = !{!213, !478, !198, !212}
!566 = !DISubprogram(name: "find", linkageName: "?find@?$basic_string@DU?$char_traits@D@std@@V?$allocator@D@2@@std@@QEBA_KQEBD_K1@Z", scope: !41, file: !42, line: 3871, type: !567, scopeLine: 3871, flags: DIFlagPublic | DIFlagPrototyped, spFlags: 0)
!567 = !DISubroutineType(types: !568)
!568 = !{!213, !478, !248, !212, !212}
!569 = !DISubprogram(name: "find", linkageName: "?find@?$basic_string@DU?$char_traits@D@std@@V?$allocator@D@2@@std@@QEBA_KQEBD_K@Z", scope: !41, file: !42, line: 3878, type: !570, scopeLine: 3878, flags: DIFlagPublic | DIFlagPrototyped, spFlags: 0)
!570 = !DISubroutineType(types: !571)
!571 = !{!213, !478, !248, !212}
!572 = !DISubprogram(name: "find", linkageName: "?find@?$basic_string@DU?$char_traits@D@std@@V?$allocator@D@2@@std@@QEBA_KD_K@Z", scope: !41, file: !42, line: 3885, type: !573, scopeLine: 3885, flags: DIFlagPublic | DIFlagPrototyped, spFlags: 0)
!573 = !DISubroutineType(types: !574)
!574 = !{!213, !478, !40, !212}
!575 = !DISubprogram(name: "rfind", linkageName: "?rfind@?$basic_string@DU?$char_traits@D@std@@V?$allocator@D@2@@std@@QEBA_KAEBV12@_K@Z", scope: !41, file: !42, line: 3901, type: !564, scopeLine: 3901, flags: DIFlagPublic | DIFlagPrototyped, spFlags: 0)
!576 = !DISubprogram(name: "rfind", linkageName: "?rfind@?$basic_string@DU?$char_traits@D@std@@V?$allocator@D@2@@std@@QEBA_KQEBD_K1@Z", scope: !41, file: !42, line: 3907, type: !567, scopeLine: 3907, flags: DIFlagPublic | DIFlagPrototyped, spFlags: 0)
!577 = !DISubprogram(name: "rfind", linkageName: "?rfind@?$basic_string@DU?$char_traits@D@std@@V?$allocator@D@2@@std@@QEBA_KQEBD_K@Z", scope: !41, file: !42, line: 3914, type: !570, scopeLine: 3914, flags: DIFlagPublic | DIFlagPrototyped, spFlags: 0)
!578 = !DISubprogram(name: "rfind", linkageName: "?rfind@?$basic_string@DU?$char_traits@D@std@@V?$allocator@D@2@@std@@QEBA_KD_K@Z", scope: !41, file: !42, line: 3921, type: !573, scopeLine: 3921, flags: DIFlagPublic | DIFlagPrototyped, spFlags: 0)
!579 = !DISubprogram(name: "find_first_of", linkageName: "?find_first_of@?$basic_string@DU?$char_traits@D@std@@V?$allocator@D@2@@std@@QEBA_KAEBV12@_K@Z", scope: !41, file: !42, line: 3937, type: !564, scopeLine: 3937, flags: DIFlagPublic | DIFlagPrototyped, spFlags: 0)
!580 = !DISubprogram(name: "find_first_of", linkageName: "?find_first_of@?$basic_string@DU?$char_traits@D@std@@V?$allocator@D@2@@std@@QEBA_KQEBD_K1@Z", scope: !41, file: !42, line: 3944, type: !567, scopeLine: 3944, flags: DIFlagPublic | DIFlagPrototyped, spFlags: 0)
!581 = !DISubprogram(name: "find_first_of", linkageName: "?find_first_of@?$basic_string@DU?$char_traits@D@std@@V?$allocator@D@2@@std@@QEBA_KQEBD_K@Z", scope: !41, file: !42, line: 3951, type: !570, scopeLine: 3951, flags: DIFlagPublic | DIFlagPrototyped, spFlags: 0)
!582 = !DISubprogram(name: "find_first_of", linkageName: "?find_first_of@?$basic_string@DU?$char_traits@D@std@@V?$allocator@D@2@@std@@QEBA_KD_K@Z", scope: !41, file: !42, line: 3958, type: !573, scopeLine: 3958, flags: DIFlagPublic | DIFlagPrototyped, spFlags: 0)
!583 = !DISubprogram(name: "find_last_of", linkageName: "?find_last_of@?$basic_string@DU?$char_traits@D@std@@V?$allocator@D@2@@std@@QEBA_KAEBV12@_K@Z", scope: !41, file: !42, line: 3974, type: !584, scopeLine: 3974, flags: DIFlagPublic | DIFlagPrototyped, spFlags: 0)
!584 = !DISubroutineType(types: !585)
!585 = !{!213, !478, !198, !213}
!586 = !DISubprogram(name: "find_last_of", linkageName: "?find_last_of@?$basic_string@DU?$char_traits@D@std@@V?$allocator@D@2@@std@@QEBA_KQEBD_K1@Z", scope: !41, file: !42, line: 3981, type: !567, scopeLine: 3981, flags: DIFlagPublic | DIFlagPrototyped, spFlags: 0)
!587 = !DISubprogram(name: "find_last_of", linkageName: "?find_last_of@?$basic_string@DU?$char_traits@D@std@@V?$allocator@D@2@@std@@QEBA_KQEBD_K@Z", scope: !41, file: !42, line: 3988, type: !570, scopeLine: 3988, flags: DIFlagPublic | DIFlagPrototyped, spFlags: 0)
!588 = !DISubprogram(name: "find_last_of", linkageName: "?find_last_of@?$basic_string@DU?$char_traits@D@std@@V?$allocator@D@2@@std@@QEBA_KD_K@Z", scope: !41, file: !42, line: 3995, type: !573, scopeLine: 3995, flags: DIFlagPublic | DIFlagPrototyped, spFlags: 0)
!589 = !DISubprogram(name: "find_first_not_of", linkageName: "?find_first_not_of@?$basic_string@DU?$char_traits@D@std@@V?$allocator@D@2@@std@@QEBA_KAEBV12@_K@Z", scope: !41, file: !42, line: 4012, type: !564, scopeLine: 4012, flags: DIFlagPublic | DIFlagPrototyped, spFlags: 0)
!590 = !DISubprogram(name: "find_first_not_of", linkageName: "?find_first_not_of@?$basic_string@DU?$char_traits@D@std@@V?$allocator@D@2@@std@@QEBA_KQEBD_K1@Z", scope: !41, file: !42, line: 4019, type: !567, scopeLine: 4019, flags: DIFlagPublic | DIFlagPrototyped, spFlags: 0)
!591 = !DISubprogram(name: "find_first_not_of", linkageName: "?find_first_not_of@?$basic_string@DU?$char_traits@D@std@@V?$allocator@D@2@@std@@QEBA_KQEBD_K@Z", scope: !41, file: !42, line: 4026, type: !592, scopeLine: 4026, flags: DIFlagPublic | DIFlagPrototyped, spFlags: 0)
!592 = !DISubroutineType(types: !593)
!593 = !{!213, !478, !248, !213}
!594 = !DISubprogram(name: "find_first_not_of", linkageName: "?find_first_not_of@?$basic_string@DU?$char_traits@D@std@@V?$allocator@D@2@@std@@QEBA_KD_K@Z", scope: !41, file: !42, line: 4033, type: !573, scopeLine: 4033, flags: DIFlagPublic | DIFlagPrototyped, spFlags: 0)
!595 = !DISubprogram(name: "find_last_not_of", linkageName: "?find_last_not_of@?$basic_string@DU?$char_traits@D@std@@V?$allocator@D@2@@std@@QEBA_KAEBV12@_K@Z", scope: !41, file: !42, line: 4051, type: !564, scopeLine: 4051, flags: DIFlagPublic | DIFlagPrototyped, spFlags: 0)
!596 = !DISubprogram(name: "find_last_not_of", linkageName: "?find_last_not_of@?$basic_string@DU?$char_traits@D@std@@V?$allocator@D@2@@std@@QEBA_KQEBD_K1@Z", scope: !41, file: !42, line: 4058, type: !567, scopeLine: 4058, flags: DIFlagPublic | DIFlagPrototyped, spFlags: 0)
!597 = !DISubprogram(name: "find_last_not_of", linkageName: "?find_last_not_of@?$basic_string@DU?$char_traits@D@std@@V?$allocator@D@2@@std@@QEBA_KQEBD_K@Z", scope: !41, file: !42, line: 4065, type: !570, scopeLine: 4065, flags: DIFlagPublic | DIFlagPrototyped, spFlags: 0)
!598 = !DISubprogram(name: "find_last_not_of", linkageName: "?find_last_not_of@?$basic_string@DU?$char_traits@D@std@@V?$allocator@D@2@@std@@QEBA_KD_K@Z", scope: !41, file: !42, line: 4072, type: !573, scopeLine: 4072, flags: DIFlagPublic | DIFlagPrototyped, spFlags: 0)
!599 = !DISubprogram(name: "substr", linkageName: "?substr@?$basic_string@DU?$char_traits@D@std@@V?$allocator@D@2@@std@@QEBA?AV12@_K0@Z", scope: !41, file: !42, line: 4085, type: !600, scopeLine: 4085, flags: DIFlagPublic | DIFlagPrototyped, spFlags: 0)
!600 = !DISubroutineType(types: !601)
!601 = !{!41, !478, !212, !212}
!602 = !DISubprogram(name: "_Equal", linkageName: "?_Equal@?$basic_string@DU?$char_traits@D@std@@V?$allocator@D@2@@std@@QEBA_NAEBV12@@Z", scope: !41, file: !42, line: 4090, type: !603, scopeLine: 4090, flags: DIFlagPublic | DIFlagPrototyped, spFlags: 0)
!603 = !DISubroutineType(types: !604)
!604 = !{!8, !478, !198}
!605 = !DISubprogram(name: "_Equal", linkageName: "?_Equal@?$basic_string@DU?$char_traits@D@std@@V?$allocator@D@2@@std@@QEBA_NQEBD@Z", scope: !41, file: !42, line: 4095, type: !606, scopeLine: 4095, flags: DIFlagPublic | DIFlagPrototyped, spFlags: 0)
!606 = !DISubroutineType(types: !607)
!607 = !{!8, !478, !248}
!608 = !DISubprogram(name: "compare", linkageName: "?compare@?$basic_string@DU?$char_traits@D@std@@V?$allocator@D@2@@std@@QEBAHAEBV12@@Z", scope: !41, file: !42, line: 4128, type: !609, scopeLine: 4128, flags: DIFlagPublic | DIFlagPrototyped, spFlags: 0)
!609 = !DISubroutineType(types: !610)
!610 = !{!5, !478, !198}
!611 = !DISubprogram(name: "compare", linkageName: "?compare@?$basic_string@DU?$char_traits@D@std@@V?$allocator@D@2@@std@@QEBAH_K0AEBV12@@Z", scope: !41, file: !42, line: 4133, type: !612, scopeLine: 4133, flags: DIFlagPublic | DIFlagPrototyped, spFlags: 0)
!612 = !DISubroutineType(types: !613)
!613 = !{!5, !478, !213, !213, !198}
!614 = !DISubprogram(name: "compare", linkageName: "?compare@?$basic_string@DU?$char_traits@D@std@@V?$allocator@D@2@@std@@QEBAH_K0AEBV12@00@Z", scope: !41, file: !42, line: 4140, type: !615, scopeLine: 4140, flags: DIFlagPublic | DIFlagPrototyped, spFlags: 0)
!615 = !DISubroutineType(types: !616)
!616 = !{!5, !478, !212, !212, !198, !212, !212}
!617 = !DISubprogram(name: "compare", linkageName: "?compare@?$basic_string@DU?$char_traits@D@std@@V?$allocator@D@2@@std@@QEBAHQEBD@Z", scope: !41, file: !42, line: 4149, type: !618, scopeLine: 4149, flags: DIFlagPublic | DIFlagPrototyped, spFlags: 0)
!618 = !DISubroutineType(types: !619)
!619 = !{!5, !478, !248}
!620 = !DISubprogram(name: "compare", linkageName: "?compare@?$basic_string@DU?$char_traits@D@std@@V?$allocator@D@2@@std@@QEBAH_K0QEBD@Z", scope: !41, file: !42, line: 4154, type: !621, scopeLine: 4154, flags: DIFlagPublic | DIFlagPrototyped, spFlags: 0)
!621 = !DISubroutineType(types: !622)
!622 = !{!5, !478, !212, !212, !248}
!623 = !DISubprogram(name: "compare", linkageName: "?compare@?$basic_string@DU?$char_traits@D@std@@V?$allocator@D@2@@std@@QEBAH_K0QEBD0@Z", scope: !41, file: !42, line: 4161, type: !624, scopeLine: 4161, flags: DIFlagPublic | DIFlagPrototyped, spFlags: 0)
!624 = !DISubroutineType(types: !625)
!625 = !{!5, !478, !212, !212, !248, !212}
!626 = !DISubprogram(name: "get_allocator", linkageName: "?get_allocator@?$basic_string@DU?$char_traits@D@std@@V?$allocator@D@2@@std@@QEBA?AV?$allocator@D@2@XZ", scope: !41, file: !42, line: 4194, type: !627, scopeLine: 4194, flags: DIFlagPublic | DIFlagPrototyped, spFlags: 0)
!627 = !DISubroutineType(types: !628)
!628 = !{!629, !478}
!629 = !DIDerivedType(tag: DW_TAG_typedef, name: "allocator_type", scope: !41, file: !42, line: 2225, baseType: !58)
!630 = !DISubprogram(name: "_Calculate_growth", linkageName: "?_Calculate_growth@?$basic_string@DU?$char_traits@D@std@@V?$allocator@D@2@@std@@CA_K_K00@Z", scope: !41, file: !42, line: 4199, type: !631, scopeLine: 4199, flags: DIFlagPrototyped | DIFlagStaticMember, spFlags: 0)
!631 = !DISubroutineType(types: !632)
!632 = !{!213, !212, !212, !212}
!633 = !DISubprogram(name: "_Calculate_growth", linkageName: "?_Calculate_growth@?$basic_string@DU?$char_traits@D@std@@V?$allocator@D@2@@std@@AEBA_K_K@Z", scope: !41, file: !42, line: 4213, type: !634, scopeLine: 4213, flags: DIFlagPrototyped, spFlags: 0)
!634 = !DISubroutineType(types: !635)
!635 = !{!213, !478, !212}
!636 = !DISubprogram(name: "_Become_small", linkageName: "?_Become_small@?$basic_string@DU?$char_traits@D@std@@V?$allocator@D@2@@std@@AEAAXXZ", scope: !41, file: !42, line: 4275, type: !204, scopeLine: 4275, flags: DIFlagPrototyped, spFlags: 0)
!637 = !DISubprogram(name: "_Eos", linkageName: "?_Eos@?$basic_string@DU?$char_traits@D@std@@V?$allocator@D@2@@std@@AEAAX_K@Z", scope: !41, file: !42, line: 4288, type: !542, scopeLine: 4288, flags: DIFlagPrototyped, spFlags: 0)
!638 = !DISubprogram(name: "_Tidy_init", linkageName: "?_Tidy_init@?$basic_string@DU?$char_traits@D@std@@V?$allocator@D@2@@std@@AEAAXXZ", scope: !41, file: !42, line: 4292, type: !204, scopeLine: 4292, flags: DIFlagPrototyped, spFlags: 0)
!639 = !DISubprogram(name: "_Tidy_deallocate", linkageName: "?_Tidy_deallocate@?$basic_string@DU?$char_traits@D@std@@V?$allocator@D@2@@std@@AEAAXXZ", scope: !41, file: !42, line: 4299, type: !204, scopeLine: 4299, flags: DIFlagPrototyped, spFlags: 0)
!640 = !DISubprogram(name: "_Orphan_all", linkageName: "?_Orphan_all@?$basic_string@DU?$char_traits@D@std@@V?$allocator@D@2@@std@@QEAAXXZ", scope: !41, file: !42, line: 4315, type: !204, scopeLine: 4315, flags: DIFlagPublic | DIFlagPrototyped, spFlags: 0)
!641 = !DISubprogram(name: "_Swap_proxy_and_iterators", linkageName: "?_Swap_proxy_and_iterators@?$basic_string@DU?$char_traits@D@std@@V?$allocator@D@2@@std@@AEAAXAEAV12@@Z", scope: !41, file: !42, line: 4320, type: !561, scopeLine: 4320, flags: DIFlagPrototyped, spFlags: 0)
!642 = !DISubprogram(name: "_Getal", linkageName: "?_Getal@?$basic_string@DU?$char_traits@D@std@@V?$allocator@D@2@@std@@AEAAAEAV?$allocator@D@2@XZ", scope: !41, file: !42, line: 4324, type: !643, scopeLine: 4324, flags: DIFlagPrototyped, spFlags: 0)
!643 = !DISubroutineType(types: !644)
!644 = !{!645, !197}
!645 = !DIDerivedType(tag: DW_TAG_reference_type, baseType: !646, size: 64)
!646 = !DIDerivedType(tag: DW_TAG_typedef, name: "_Alty", scope: !41, file: !42, line: 2209, baseType: !647)
!647 = !DIDerivedType(tag: DW_TAG_typedef, name: "_Rebind_alloc_t<std::allocator<char>, char>", scope: !14, file: !55, line: 731, baseType: !648)
!648 = !DIDerivedType(tag: DW_TAG_typedef, name: "rebind_alloc<char>", scope: !215, file: !55, line: 673, baseType: !58)
!649 = !DISubprogram(name: "_Getal", linkageName: "?_Getal@?$basic_string@DU?$char_traits@D@std@@V?$allocator@D@2@@std@@AEBAAEBV?$allocator@D@2@XZ", scope: !41, file: !42, line: 4328, type: !650, scopeLine: 4328, flags: DIFlagPrototyped, spFlags: 0)
!650 = !DISubroutineType(types: !651)
!651 = !{!652, !478}
!652 = !DIDerivedType(tag: DW_TAG_reference_type, baseType: !653, size: 64)
!653 = !DIDerivedType(tag: DW_TAG_const_type, baseType: !646)
!654 = !{!655, !656, !241}
!655 = !DITemplateTypeParameter(name: "_Elem", type: !33)
!656 = !DITemplateTypeParameter(name: "_Traits", type: !657)
!657 = distinct !DICompositeType(tag: DW_TAG_structure_type, name: "char_traits<char>", scope: !14, file: !42, line: 409, size: 8, flags: DIFlagTypePassByValue, elements: !658, templateParams: !708, identifier: ".?AU?$char_traits@D@std@@")
!658 = !{!659}
!659 = !DIDerivedType(tag: DW_TAG_inheritance, scope: !657, baseType: !660, extraData: i32 0)
!660 = distinct !DICompositeType(tag: DW_TAG_structure_type, name: "_Narrow_char_traits<char, int>", scope: !14, file: !42, line: 281, size: 8, flags: DIFlagTypePassByValue, elements: !661, templateParams: !706, identifier: ".?AU?$_Narrow_char_traits@DH@std@@")
!661 = !{!662, !665, !668, !671, !674, !677, !678, !681, !684, !687, !688, !694, !697, !700, !703}
!662 = !DISubprogram(name: "compare", linkageName: "?compare@?$_Narrow_char_traits@DH@std@@SAHQEBD0_K@Z", scope: !660, file: !42, line: 288, type: !663, scopeLine: 288, flags: DIFlagPrototyped | DIFlagStaticMember, spFlags: 0)
!663 = !DISubroutineType(types: !664)
!664 = !{!5, !248, !248, !50}
!665 = !DISubprogram(name: "length", linkageName: "?length@?$_Narrow_char_traits@DH@std@@SA_KQEBD@Z", scope: !660, file: !42, line: 305, type: !666, scopeLine: 305, flags: DIFlagPrototyped | DIFlagStaticMember, spFlags: 0)
!666 = !DISubroutineType(types: !667)
!667 = !{!34, !248}
!668 = !DISubprogram(name: "copy", linkageName: "?copy@?$_Narrow_char_traits@DH@std@@SAPEADQEADQEBD_K@Z", scope: !660, file: !42, line: 325, type: !669, scopeLine: 325, flags: DIFlagPrototyped | DIFlagStaticMember, spFlags: 0)
!669 = !DISubroutineType(types: !670)
!670 = !{!32, !81, !248, !50}
!671 = !DISubprogram(name: "_Copy_s", linkageName: "?_Copy_s@?$_Narrow_char_traits@DH@std@@SAPEADQEAD_KQEBD1@Z", scope: !660, file: !42, line: 331, type: !672, scopeLine: 331, flags: DIFlagPrototyped | DIFlagStaticMember, spFlags: 0)
!672 = !DISubroutineType(types: !673)
!673 = !{!32, !81, !50, !248, !50}
!674 = !DISubprogram(name: "find", linkageName: "?find@?$_Narrow_char_traits@DH@std@@SAPEBDQEBD_KAEBD@Z", scope: !660, file: !42, line: 339, type: !675, scopeLine: 339, flags: DIFlagPrototyped | DIFlagStaticMember, spFlags: 0)
!675 = !DISubroutineType(types: !676)
!676 = !{!39, !248, !50, !69}
!677 = !DISubprogram(name: "move", linkageName: "?move@?$_Narrow_char_traits@DH@std@@SAPEADQEADQEBD_K@Z", scope: !660, file: !42, line: 360, type: !669, scopeLine: 360, flags: DIFlagPrototyped | DIFlagStaticMember, spFlags: 0)
!678 = !DISubprogram(name: "assign", linkageName: "?assign@?$_Narrow_char_traits@DH@std@@SAPEADQEAD_KD@Z", scope: !660, file: !42, line: 366, type: !679, scopeLine: 366, flags: DIFlagPrototyped | DIFlagStaticMember, spFlags: 0)
!679 = !DISubroutineType(types: !680)
!680 = !{!32, !81, !50, !40}
!681 = !DISubprogram(name: "assign", linkageName: "?assign@?$_Narrow_char_traits@DH@std@@SAXAEADAEBD@Z", scope: !660, file: !42, line: 372, type: !682, scopeLine: 372, flags: DIFlagPrototyped | DIFlagStaticMember, spFlags: 0)
!682 = !DISubroutineType(types: !683)
!683 = !{null, !65, !69}
!684 = !DISubprogram(name: "eq", linkageName: "?eq@?$_Narrow_char_traits@DH@std@@SA_NAEBD0@Z", scope: !660, file: !42, line: 376, type: !685, scopeLine: 376, flags: DIFlagPrototyped | DIFlagStaticMember, spFlags: 0)
!685 = !DISubroutineType(types: !686)
!686 = !{!8, !69, !69}
!687 = !DISubprogram(name: "lt", linkageName: "?lt@?$_Narrow_char_traits@DH@std@@SA_NAEBD0@Z", scope: !660, file: !42, line: 380, type: !685, scopeLine: 380, flags: DIFlagPrototyped | DIFlagStaticMember, spFlags: 0)
!688 = !DISubprogram(name: "to_char_type", linkageName: "?to_char_type@?$_Narrow_char_traits@DH@std@@SADAEBH@Z", scope: !660, file: !42, line: 384, type: !689, scopeLine: 384, flags: DIFlagPrototyped | DIFlagStaticMember, spFlags: 0)
!689 = !DISubroutineType(types: !690)
!690 = !{!33, !691}
!691 = !DIDerivedType(tag: DW_TAG_reference_type, baseType: !692, size: 64)
!692 = !DIDerivedType(tag: DW_TAG_const_type, baseType: !693)
!693 = !DIDerivedType(tag: DW_TAG_typedef, name: "int_type", scope: !660, file: !42, line: 283, baseType: !5)
!694 = !DISubprogram(name: "to_int_type", linkageName: "?to_int_type@?$_Narrow_char_traits@DH@std@@SAHAEBD@Z", scope: !660, file: !42, line: 388, type: !695, scopeLine: 388, flags: DIFlagPrototyped | DIFlagStaticMember, spFlags: 0)
!695 = !DISubroutineType(types: !696)
!696 = !{!693, !69}
!697 = !DISubprogram(name: "eq_int_type", linkageName: "?eq_int_type@?$_Narrow_char_traits@DH@std@@SA_NAEBH0@Z", scope: !660, file: !42, line: 392, type: !698, scopeLine: 392, flags: DIFlagPrototyped | DIFlagStaticMember, spFlags: 0)
!698 = !DISubroutineType(types: !699)
!699 = !{!8, !691, !691}
!700 = !DISubprogram(name: "not_eof", linkageName: "?not_eof@?$_Narrow_char_traits@DH@std@@SAHAEBH@Z", scope: !660, file: !42, line: 396, type: !701, scopeLine: 396, flags: DIFlagPrototyped | DIFlagStaticMember, spFlags: 0)
!701 = !DISubroutineType(types: !702)
!702 = !{!693, !691}
!703 = !DISubprogram(name: "eof", linkageName: "?eof@?$_Narrow_char_traits@DH@std@@SAHXZ", scope: !660, file: !42, line: 400, type: !704, scopeLine: 400, flags: DIFlagPrototyped | DIFlagStaticMember, spFlags: 0)
!704 = !DISubroutineType(types: !705)
!705 = !{!693}
!706 = !{!655, !707}
!707 = !DITemplateTypeParameter(name: "_Int_type", type: !5)
!708 = !{!655}
!709 = !{!0, !6, !710, !712, !714}
!710 = !DIGlobalVariableExpression(var: !711, expr: !DIExpression(DW_OP_constu, 4096, DW_OP_stack_value))
!711 = distinct !DIGlobalVariable(name: "_Big_allocation_threshold", scope: !14, file: !55, line: 92, type: !50, isLocal: true, isDefinition: true)
!712 = !DIGlobalVariableExpression(var: !713, expr: !DIExpression(DW_OP_constu, 39, DW_OP_stack_value))
!713 = distinct !DIGlobalVariable(name: "_Non_user_size", scope: !14, file: !55, line: 102, type: !50, isLocal: true, isDefinition: true)
!714 = !DIGlobalVariableExpression(var: !715, expr: !DIExpression(DW_OP_constu, 32, DW_OP_stack_value))
!715 = distinct !DIGlobalVariable(name: "_Big_allocation_alignment", scope: !14, file: !55, line: 93, type: !50, isLocal: true, isDefinition: true)
!716 = !{!717, !720, !724, !725, !728, !730, !734, !741, !743, !748, !753, !757, !761, !765, !774, !779, !789, !793, !797, !801, !805, !809, !813, !819, !823, !827, !831, !835, !840, !845, !849, !854, !860, !864, !865, !869, !871, !875, !879, !883, !888, !892, !896, !900, !902, !904, !906, !909, !910, !914, !919, !920, !923, !928, !929, !931, !936, !941, !945, !947, !949, !954, !959, !963, !965, !967, !971, !975, !979, !983, !987, !989, !993, !995, !997, !999, !1001, !1005, !1010, !1013, !1018, !1021, !1023, !1025, !1028, !1031, !1033, !1035, !1037, !1039, !1041, !1043, !1045, !1047, !1049, !1051, !1053, !1055, !1057, !1059, !1061, !1063, !1065, !1067, !1069, !1072, !1074, !1075, !1076, !1077, !1078, !1079, !1080, !1081, !1082, !1083, !1084, !1085, !1086, !1087, !1088, !1089, !1090, !1091, !1092, !1093, !1094, !1095, !1096, !1097, !1098, !1099, !1100, !1101, !1102, !1103, !1108, !1116, !1117, !1120, !1121, !1126, !1130, !1132, !1134, !1136, !1138, !1143, !1147, !1151, !1156, !1160, !1164, !1168, !1172, !1174, !1178, !1184, !1188, !1192, !1194, !1196, !1200, !1202, !1206, !1210, !1212, !1214, !1216, !1218, !1220, !1224, !1228, !1232, !1236, !1240, !1244, !1246, !1251, !1255, !1259, !1263, !1267, !1269, !1271, !1275, !1277, !1279, !1280, !1283, !1285, !1290, !1294, !1298, !1302, !1306, !1310, !1315, !1317, !1319, !1323, !1328, !1332, !1337, !1343, !1345, !1349, !1354, !1358, !1362, !1366, !1370, !1374, !1378, !1382, !1384, !1389, !1395, !1400, !1404, !1408, !1410, !1412, !1416, !1420, !1424, !1428, !1430, !1432, !1434, !1436, !1440, !1444, !1446, !1448, !1452, !1456, !1460, !1462, !1464, !1466, !1468, !1474, !1476, !1480, !1482, !1486, !1490, !1494, !1498, !1501, !1504, !1508, !1510, !1512, !1514, !1516, !1518, !1520, !1522, !1524, !1526, !1528, !1530, !1532}
!717 = !DIImportedEntity(tag: DW_TAG_imported_declaration, scope: !9, entity: !718, file: !35, line: 94)
!718 = !DIDerivedType(tag: DW_TAG_typedef, name: "nullptr_t", scope: !14, file: !35, line: 93, baseType: !719)
!719 = !DIBasicType(tag: DW_TAG_unspecified_type, name: "decltype(nullptr)")
!720 = !DIImportedEntity(tag: DW_TAG_imported_declaration, scope: !14, entity: !721, file: !723, line: 23)
!721 = !DIDerivedType(tag: DW_TAG_typedef, name: "ptrdiff_t", file: !35, line: 35, baseType: !722)
!722 = !DIBasicType(name: "long long int", size: 64, encoding: DW_ATE_signed)
!723 = !DIFile(filename: "Program Files (x86)\\Microsoft Visual Studio\\2019\\Community\\VC\\Tools\\MSVC\\14.27.29110\\include\\cstddef", directory: "C:\\")
!724 = !DIImportedEntity(tag: DW_TAG_imported_declaration, scope: !14, entity: !34, file: !723, line: 24)
!725 = !DIImportedEntity(tag: DW_TAG_imported_declaration, scope: !9, entity: !726, file: !723, line: 95)
!726 = !DIDerivedType(tag: DW_TAG_typedef, name: "max_align_t", scope: !14, file: !723, line: 25, baseType: !727)
!727 = !DIBasicType(name: "double", size: 64, encoding: DW_ATE_float)
!728 = !DIImportedEntity(tag: DW_TAG_imported_declaration, scope: !14, entity: !34, file: !729, line: 36)
!729 = !DIFile(filename: "Program Files (x86)\\Microsoft Visual Studio\\2019\\Community\\VC\\Tools\\MSVC\\14.27.29110\\include\\cstdlib", directory: "C:\\")
!730 = !DIImportedEntity(tag: DW_TAG_imported_declaration, scope: !14, entity: !731, file: !729, line: 37)
!731 = !DIDerivedType(tag: DW_TAG_typedef, name: "div_t", file: !732, line: 279, baseType: !733)
!732 = !DIFile(filename: "Program Files (x86)\\Windows Kits\\10\\Include\\10.0.19041.0\\ucrt\\stdlib.h", directory: "C:\\")
!733 = !DICompositeType(tag: DW_TAG_structure_type, name: "_div_t", file: !732, line: 275, flags: DIFlagFwdDecl, identifier: ".?AU_div_t@@")
!734 = !DIImportedEntity(tag: DW_TAG_imported_declaration, scope: !14, entity: !735, file: !729, line: 38)
!735 = !DIDerivedType(tag: DW_TAG_typedef, name: "ldiv_t", file: !732, line: 285, baseType: !736)
!736 = distinct !DICompositeType(tag: DW_TAG_structure_type, name: "_ldiv_t", file: !732, line: 281, size: 64, flags: DIFlagTypePassByValue, elements: !737, identifier: ".?AU_ldiv_t@@")
!737 = !{!738, !740}
!738 = !DIDerivedType(tag: DW_TAG_member, name: "quot", scope: !736, file: !732, line: 283, baseType: !739, size: 32)
!739 = !DIBasicType(name: "long int", size: 32, encoding: DW_ATE_signed)
!740 = !DIDerivedType(tag: DW_TAG_member, name: "rem", scope: !736, file: !732, line: 284, baseType: !739, size: 32, offset: 32)
!741 = !DIImportedEntity(tag: DW_TAG_imported_declaration, scope: !14, entity: !742, file: !729, line: 39)
!742 = !DISubprogram(name: "abort", scope: !732, file: !732, line: 60, type: !173, flags: DIFlagPrototyped | DIFlagNoReturn, spFlags: 0)
!743 = !DIImportedEntity(tag: DW_TAG_imported_declaration, scope: !14, entity: !744, file: !729, line: 40)
!744 = !DISubprogram(name: "abs", linkageName: "?abs@@YAOO@Z", scope: !729, file: !729, line: 31, type: !745, flags: DIFlagPrototyped, spFlags: 0)
!745 = !DISubroutineType(types: !746)
!746 = !{!747, !747}
!747 = !DIBasicType(name: "long double", size: 64, encoding: DW_ATE_float)
!748 = !DIImportedEntity(tag: DW_TAG_imported_declaration, scope: !14, entity: !749, file: !729, line: 41)
!749 = !DISubprogram(name: "atexit", scope: !732, file: !732, line: 144, type: !750, flags: DIFlagPrototyped, spFlags: 0)
!750 = !DISubroutineType(types: !751)
!751 = !{!5, !752}
!752 = !DIDerivedType(tag: DW_TAG_pointer_type, baseType: !173, size: 64)
!753 = !DIImportedEntity(tag: DW_TAG_imported_declaration, scope: !14, entity: !754, file: !729, line: 42)
!754 = !DISubprogram(name: "atof", scope: !732, file: !732, line: 450, type: !755, flags: DIFlagPrototyped, spFlags: 0)
!755 = !DISubroutineType(types: !756)
!756 = !{!727, !39}
!757 = !DIImportedEntity(tag: DW_TAG_imported_declaration, scope: !14, entity: !758, file: !729, line: 43)
!758 = !DISubprogram(name: "atoi", scope: !732, file: !732, line: 451, type: !759, flags: DIFlagPrototyped, spFlags: 0)
!759 = !DISubroutineType(types: !760)
!760 = !{!5, !39}
!761 = !DIImportedEntity(tag: DW_TAG_imported_declaration, scope: !14, entity: !762, file: !729, line: 44)
!762 = !DISubprogram(name: "atol", scope: !732, file: !732, line: 452, type: !763, flags: DIFlagPrototyped, spFlags: 0)
!763 = !DISubroutineType(types: !764)
!764 = !{!739, !39}
!765 = !DIImportedEntity(tag: DW_TAG_imported_declaration, scope: !14, entity: !766, file: !729, line: 45)
!766 = !DISubprogram(name: "bsearch", scope: !767, file: !767, line: 52, type: !768, flags: DIFlagPrototyped, spFlags: 0)
!767 = !DIFile(filename: "Program Files (x86)\\Windows Kits\\10\\Include\\10.0.19041.0\\ucrt\\corecrt_search.h", directory: "C:\\")
!768 = !DISubroutineType(types: !769)
!769 = !{!31, !88, !88, !34, !34, !770}
!770 = !DIDerivedType(tag: DW_TAG_typedef, name: "_CoreCrtNonSecureSearchSortCompareFunction", file: !767, line: 24, baseType: !771)
!771 = !DIDerivedType(tag: DW_TAG_pointer_type, baseType: !772, size: 64)
!772 = !DISubroutineType(types: !773)
!773 = !{!5, !88, !88}
!774 = !DIImportedEntity(tag: DW_TAG_imported_declaration, scope: !14, entity: !775, file: !729, line: 46)
!775 = !DISubprogram(name: "calloc", scope: !776, file: !776, line: 66, type: !777, flags: DIFlagPrototyped, spFlags: 0)
!776 = !DIFile(filename: "Program Files (x86)\\Windows Kits\\10\\Include\\10.0.19041.0\\ucrt\\corecrt_malloc.h", directory: "C:\\")
!777 = !DISubroutineType(types: !778)
!778 = !{!31, !34, !34}
!779 = !DIImportedEntity(tag: DW_TAG_imported_declaration, scope: !14, entity: !780, file: !729, line: 47)
!780 = !DISubprogram(name: "div", linkageName: "?div@@YA?AU_lldiv_t@@_J0@Z", scope: !732, file: !732, line: 378, type: !781, flags: DIFlagPrototyped, spFlags: 0)
!781 = !DISubroutineType(types: !782)
!782 = !{!783, !788, !788}
!783 = !DIDerivedType(tag: DW_TAG_typedef, name: "lldiv_t", file: !732, line: 291, baseType: !784)
!784 = distinct !DICompositeType(tag: DW_TAG_structure_type, name: "_lldiv_t", file: !732, line: 287, size: 128, flags: DIFlagTypePassByValue, elements: !785, identifier: ".?AU_lldiv_t@@")
!785 = !{!786, !787}
!786 = !DIDerivedType(tag: DW_TAG_member, name: "quot", scope: !784, file: !732, line: 289, baseType: !722, size: 64)
!787 = !DIDerivedType(tag: DW_TAG_member, name: "rem", scope: !784, file: !732, line: 290, baseType: !722, size: 64, offset: 64)
!788 = !DIDerivedType(tag: DW_TAG_const_type, baseType: !722)
!789 = !DIImportedEntity(tag: DW_TAG_imported_declaration, scope: !14, entity: !790, file: !729, line: 48)
!790 = !DISubprogram(name: "exit", scope: !732, file: !732, line: 56, type: !791, flags: DIFlagPrototyped | DIFlagNoReturn, spFlags: 0)
!791 = !DISubroutineType(types: !792)
!792 = !{null, !5}
!793 = !DIImportedEntity(tag: DW_TAG_imported_declaration, scope: !14, entity: !794, file: !729, line: 49)
!794 = !DISubprogram(name: "free", scope: !776, file: !776, line: 89, type: !795, flags: DIFlagPrototyped, spFlags: 0)
!795 = !DISubroutineType(types: !796)
!796 = !{null, !31}
!797 = !DIImportedEntity(tag: DW_TAG_imported_declaration, scope: !14, entity: !798, file: !729, line: 50)
!798 = !DISubprogram(name: "labs", scope: !732, file: !732, line: 294, type: !799, flags: DIFlagPrototyped, spFlags: 0)
!799 = !DISubroutineType(types: !800)
!800 = !{!739, !739}
!801 = !DIImportedEntity(tag: DW_TAG_imported_declaration, scope: !14, entity: !802, file: !729, line: 51)
!802 = !DISubprogram(name: "ldiv", scope: !732, file: !732, line: 303, type: !803, flags: DIFlagPrototyped, spFlags: 0)
!803 = !DISubroutineType(types: !804)
!804 = !{!735, !739, !739}
!805 = !DIImportedEntity(tag: DW_TAG_imported_declaration, scope: !14, entity: !806, file: !729, line: 52)
!806 = !DISubprogram(name: "malloc", scope: !776, file: !776, line: 101, type: !807, flags: DIFlagPrototyped, spFlags: 0)
!807 = !DISubroutineType(types: !808)
!808 = !{!31, !34}
!809 = !DIImportedEntity(tag: DW_TAG_imported_declaration, scope: !14, entity: !810, file: !729, line: 53)
!810 = !DISubprogram(name: "mblen", scope: !732, file: !732, line: 852, type: !811, flags: DIFlagPrototyped, spFlags: 0)
!811 = !DISubroutineType(types: !812)
!812 = !{!5, !39, !34}
!813 = !DIImportedEntity(tag: DW_TAG_imported_declaration, scope: !14, entity: !814, file: !729, line: 54)
!814 = !DISubprogram(name: "mbstowcs", scope: !732, file: !732, line: 924, type: !815, flags: DIFlagPrototyped, spFlags: 0)
!815 = !DISubroutineType(types: !816)
!816 = !{!34, !817, !39, !34}
!817 = !DIDerivedType(tag: DW_TAG_pointer_type, baseType: !818, size: 64)
!818 = !DIBasicType(name: "wchar_t", size: 16, encoding: DW_ATE_unsigned)
!819 = !DIImportedEntity(tag: DW_TAG_imported_declaration, scope: !14, entity: !820, file: !729, line: 55)
!820 = !DISubprogram(name: "mbtowc", scope: !732, file: !732, line: 893, type: !821, flags: DIFlagPrototyped, spFlags: 0)
!821 = !DISubroutineType(types: !822)
!822 = !{!5, !817, !39, !34}
!823 = !DIImportedEntity(tag: DW_TAG_imported_declaration, scope: !14, entity: !824, file: !729, line: 56)
!824 = !DISubprogram(name: "qsort", scope: !767, file: !767, line: 60, type: !825, flags: DIFlagPrototyped, spFlags: 0)
!825 = !DISubroutineType(types: !826)
!826 = !{null, !31, !34, !34, !770}
!827 = !DIImportedEntity(tag: DW_TAG_imported_declaration, scope: !14, entity: !828, file: !729, line: 57)
!828 = !DISubprogram(name: "rand", scope: !732, file: !732, line: 352, type: !829, flags: DIFlagPrototyped, spFlags: 0)
!829 = !DISubroutineType(types: !830)
!830 = !{!5}
!831 = !DIImportedEntity(tag: DW_TAG_imported_declaration, scope: !14, entity: !832, file: !729, line: 58)
!832 = !DISubprogram(name: "realloc", scope: !776, file: !776, line: 126, type: !833, flags: DIFlagPrototyped, spFlags: 0)
!833 = !DISubroutineType(types: !834)
!834 = !{!31, !31, !34}
!835 = !DIImportedEntity(tag: DW_TAG_imported_declaration, scope: !14, entity: !836, file: !729, line: 59)
!836 = !DISubprogram(name: "srand", scope: !732, file: !732, line: 350, type: !837, flags: DIFlagPrototyped, spFlags: 0)
!837 = !DISubroutineType(types: !838)
!838 = !{null, !839}
!839 = !DIBasicType(name: "unsigned int", size: 32, encoding: DW_ATE_unsigned)
!840 = !DIImportedEntity(tag: DW_TAG_imported_declaration, scope: !14, entity: !841, file: !729, line: 60)
!841 = !DISubprogram(name: "strtod", scope: !732, file: !732, line: 502, type: !842, flags: DIFlagPrototyped, spFlags: 0)
!842 = !DISubroutineType(types: !843)
!843 = !{!727, !39, !844}
!844 = !DIDerivedType(tag: DW_TAG_pointer_type, baseType: !32, size: 64)
!845 = !DIImportedEntity(tag: DW_TAG_imported_declaration, scope: !14, entity: !846, file: !729, line: 61)
!846 = !DISubprogram(name: "strtol", scope: !732, file: !732, line: 528, type: !847, flags: DIFlagPrototyped, spFlags: 0)
!847 = !DISubroutineType(types: !848)
!848 = !{!739, !39, !844, !5}
!849 = !DIImportedEntity(tag: DW_TAG_imported_declaration, scope: !14, entity: !850, file: !729, line: 62)
!850 = !DISubprogram(name: "strtoul", scope: !732, file: !732, line: 558, type: !851, flags: DIFlagPrototyped, spFlags: 0)
!851 = !DISubroutineType(types: !852)
!852 = !{!853, !39, !844, !5}
!853 = !DIBasicType(name: "long unsigned int", size: 32, encoding: DW_ATE_unsigned)
!854 = !DIImportedEntity(tag: DW_TAG_imported_declaration, scope: !14, entity: !855, file: !729, line: 63)
!855 = !DISubprogram(name: "wcstombs", scope: !732, file: !732, line: 1012, type: !856, flags: DIFlagPrototyped, spFlags: 0)
!856 = !DISubroutineType(types: !857)
!857 = !{!34, !32, !858, !34}
!858 = !DIDerivedType(tag: DW_TAG_pointer_type, baseType: !859, size: 64)
!859 = !DIDerivedType(tag: DW_TAG_const_type, baseType: !818)
!860 = !DIImportedEntity(tag: DW_TAG_imported_declaration, scope: !14, entity: !861, file: !729, line: 64)
!861 = !DISubprogram(name: "wctomb", scope: !732, file: !732, line: 963, type: !862, flags: DIFlagPrototyped, spFlags: 0)
!862 = !DISubroutineType(types: !863)
!863 = !{!5, !32, !818}
!864 = !DIImportedEntity(tag: DW_TAG_imported_declaration, scope: !14, entity: !783, file: !729, line: 66)
!865 = !DIImportedEntity(tag: DW_TAG_imported_declaration, scope: !14, entity: !866, file: !729, line: 69)
!866 = !DISubprogram(name: "getenv", scope: !732, file: !732, line: 1184, type: !867, flags: DIFlagPrototyped, spFlags: 0)
!867 = !DISubroutineType(types: !868)
!868 = !{!32, !39}
!869 = !DIImportedEntity(tag: DW_TAG_imported_declaration, scope: !14, entity: !870, file: !729, line: 70)
!870 = !DISubprogram(name: "system", scope: !732, file: !732, line: 1211, type: !759, flags: DIFlagPrototyped, spFlags: 0)
!871 = !DIImportedEntity(tag: DW_TAG_imported_declaration, scope: !14, entity: !872, file: !729, line: 73)
!872 = !DISubprogram(name: "atoll", scope: !732, file: !732, line: 453, type: !873, flags: DIFlagPrototyped, spFlags: 0)
!873 = !DISubroutineType(types: !874)
!874 = !{!722, !39}
!875 = !DIImportedEntity(tag: DW_TAG_imported_declaration, scope: !14, entity: !876, file: !729, line: 74)
!876 = !DISubprogram(name: "llabs", scope: !732, file: !732, line: 295, type: !877, flags: DIFlagPrototyped, spFlags: 0)
!877 = !DISubroutineType(types: !878)
!878 = !{!722, !722}
!879 = !DIImportedEntity(tag: DW_TAG_imported_declaration, scope: !14, entity: !880, file: !729, line: 75)
!880 = !DISubprogram(name: "lldiv", scope: !732, file: !732, line: 304, type: !881, flags: DIFlagPrototyped, spFlags: 0)
!881 = !DISubroutineType(types: !882)
!882 = !{!783, !722, !722}
!883 = !DIImportedEntity(tag: DW_TAG_imported_declaration, scope: !14, entity: !884, file: !729, line: 76)
!884 = !DISubprogram(name: "strtof", scope: !732, file: !732, line: 489, type: !885, flags: DIFlagPrototyped, spFlags: 0)
!885 = !DISubroutineType(types: !886)
!886 = !{!887, !39, !844}
!887 = !DIBasicType(name: "float", size: 32, encoding: DW_ATE_float)
!888 = !DIImportedEntity(tag: DW_TAG_imported_declaration, scope: !14, entity: !889, file: !729, line: 77)
!889 = !DISubprogram(name: "strtold", scope: !732, file: !732, line: 515, type: !890, flags: DIFlagPrototyped, spFlags: 0)
!890 = !DISubroutineType(types: !891)
!891 = !{!747, !39, !844}
!892 = !DIImportedEntity(tag: DW_TAG_imported_declaration, scope: !14, entity: !893, file: !729, line: 78)
!893 = !DISubprogram(name: "strtoll", scope: !732, file: !732, line: 543, type: !894, flags: DIFlagPrototyped, spFlags: 0)
!894 = !DISubroutineType(types: !895)
!895 = !{!722, !39, !844, !5}
!896 = !DIImportedEntity(tag: DW_TAG_imported_declaration, scope: !14, entity: !897, file: !729, line: 79)
!897 = !DISubprogram(name: "strtoull", scope: !732, file: !732, line: 573, type: !898, flags: DIFlagPrototyped, spFlags: 0)
!898 = !DISubroutineType(types: !899)
!899 = !{!30, !39, !844, !5}
!900 = !DIImportedEntity(tag: DW_TAG_imported_declaration, scope: !14, entity: !901, file: !729, line: 81)
!901 = !DISubprogram(name: "_Exit", scope: !732, file: !732, line: 58, type: !791, flags: DIFlagPrototyped | DIFlagNoReturn, spFlags: 0)
!902 = !DIImportedEntity(tag: DW_TAG_imported_declaration, scope: !14, entity: !903, file: !729, line: 82)
