; ModuleID = 'C:\temp2\llvm-project\WindbgPlugin\ExecutableTest\StlExprssionsTests.cpp'
source_filename = "C:\\temp2\\llvm-project\\WindbgPlugin\\ExecutableTest\\StlExprssionsTests.cpp"
target datalayout = "e-m:w-p270:32:32-p271:32:32-p272:64:64-i64:64-f80:128-n8:16:32:64-S128"
target triple = "x86_64-pc-windows-msvc19.27.29112"

%"class.std::basic_string" = type { %"class.std::_Compressed_pair.0" }
%"class.std::_Compressed_pair.0" = type { %"class.std::_String_val" }
%"class.std::_String_val" = type { %"union.std::_String_val<std::_Simple_types<char>>::_Bxty", i64, i64 }
%"union.std::_String_val<std::_Simple_types<char>>::_Bxty" = type { i8*, [8 x i8] }
%"struct.std::in_place_t" = type { i8 }
%rtti.TypeDescriptor29 = type { i8**, i8*, [30 x i8] }
%eh.CatchableType = type { i32, i32, i32, i32, i32, i32, i32 }
%rtti.TypeDescriptor19 = type { i8**, i8*, [20 x i8] }
%eh.CatchableTypeArray.2 = type { i32, [2 x i32] }
%eh.ThrowInfo = type { i32, i32, i32, i32 }
%rtti.CompleteObjectLocator = type { i32, i32, i32, i32, i32, i32 }
%rtti.ClassHierarchyDescriptor = type { i32, i32, i32, i32 }
%rtti.BaseClassDescriptor = type { i32, i32, i32, i32, i32, i32, i32 }
%rtti.TypeDescriptor30 = type { i8**, i8*, [31 x i8] }
%eh.CatchableTypeArray.3 = type { i32, [3 x i32] }
%rtti.TypeDescriptor25 = type { i8**, i8*, [26 x i8] }
%"class.std::unique_ptr" = type { %"class.std::_Compressed_pair" }
%"class.std::_Compressed_pair" = type { %class.ClassWithDestructor* }
%class.ClassWithDestructor = type { i32 }
%"struct.std::_Zero_then_variadic_args_t" = type { i8 }
%"class.std::optional" = type { %"struct.std::_Optional_construct_base" }
%"struct.std::_Optional_construct_base" = type { %"struct.std::_Optional_destruct_base" }
%"struct.std::_Optional_destruct_base" = type { %union.anon, i8 }
%union.anon = type { i32 }
%"struct.std::_Fake_allocator" = type { i8 }
%"struct.std::_Fake_proxy_ptr_impl" = type { i8 }
%"struct.std::_Container_base0" = type { i8 }
%"struct.std::_String_constructor_concat_tag" = type { i8 }
%"class.std::allocator" = type { i8 }
%"struct.std::_One_then_variadic_args_t" = type { i8 }
%"struct.std::_Equal_allocators" = type { i8 }
%"class.tl::expected" = type { %"struct.tl::detail::expected_move_assign_base", [4 x i8] }
%"struct.tl::detail::expected_move_assign_base" = type { %"struct.tl::detail::expected_copy_assign_base" }
%"struct.tl::detail::expected_copy_assign_base" = type { %"struct.tl::detail::expected_move_base" }
%"struct.tl::detail::expected_move_base" = type { %"struct.tl::detail::expected_copy_base" }
%"struct.tl::detail::expected_copy_base" = type { %"struct.tl::detail::expected_operations_base" }
%"struct.tl::detail::expected_operations_base" = type { %"struct.tl::detail::expected_storage_base" }
%"struct.tl::detail::expected_storage_base" = type { %union.anon.1, i8 }
%union.anon.1 = type { i32 }
%"struct.tl::detail::expected_delete_ctor_base" = type { i8 }
%"struct.tl::detail::expected_delete_assign_base" = type { i8 }
%"struct.tl::detail::expected_default_ctor_base" = type { i8 }
%"class.tl::unexpected" = type { i32 }
%"class.std::shared_ptr" = type { %"class.std::_Ptr_base" }
%"class.std::_Ptr_base" = type { i32*, %"class.std::_Ref_count_base"* }
%"class.std::_Ref_count_base" = type { i32 (...)**, i32, i32 }
%"class.std::_Ref_count_obj2" = type { %"class.std::_Ref_count_base", %union.anon.9 }
%union.anon.9 = type { %"struct.std::_Wrap" }
%"struct.std::_Wrap" = type { i32 }
%struct.__vcrt_assert_va_start_is_not_reference = type { i8 }
%struct._iobuf = type { i8* }
%struct.__crt_locale_pointers = type { %struct.__crt_locale_data*, %struct.__crt_multibyte_data* }
%struct.__crt_locale_data = type opaque
%struct.__crt_multibyte_data = type opaque
%"class.std::unique_ptr.2" = type { %"class.std::_Compressed_pair.3" }
%"class.std::_Compressed_pair.3" = type { i32* }
%"struct.std::default_delete" = type { i8 }
%"struct.std::default_delete.4" = type { i8 }
%struct._STARTUPINFOW = type { i32, i16*, i16*, i16*, i32, i32, i32, i32, i32, i32, i32, i32, i16, i16, i8*, i8*, i8*, i8* }
%struct._CONTEXT = type { i64, i64, i64, i64, i64, i64, i32, i32, i16, i16, i16, i16, i16, i16, i32, i64, i64, i64, i64, i64, i64, i64, i64, i64, i64, i64, i64, i64, i64, i64, i64, i64, i64, i64, i64, i64, i64, i64, %union.anon.6, [26 x %struct._M128A], i64, i64, i64, i64, i64, i64 }
%union.anon.6 = type { %struct._XSAVE_FORMAT }
%struct._XSAVE_FORMAT = type { i16, i16, i8, i8, i16, i32, i16, i16, i32, i16, i16, i32, i32, [8 x %struct._M128A], [16 x %struct._M128A], [96 x i8] }
%struct._M128A = type { i64, i64 }
%struct._PROCESS_INFORMATION = type { i8*, i8*, i32, i32 }
%"struct.test::expression::MyStruct" = type { i32 }
%"class.std::bad_optional_access" = type { %"class.std::exception" }
%"class.std::exception" = type { i32 (...)**, %struct.__std_exception_data }
%struct.__std_exception_data = type { i8*, i8 }
%class.anon = type { i8 }
%"class.std::bad_array_new_length" = type { %"class.std::bad_alloc" }
%"class.std::bad_alloc" = type { %"class.std::exception" }
%"struct.std::integral_constant" = type { i8 }
%class.anon.7 = type { i8 }
%class.type_info = type { i32 (...)**, %struct.__std_type_info_data }
%struct.__std_type_info_data = type { i8*, [1 x i8] }

$"??$?0U?$default_delete@VClassWithDestructor@@@std@@$0A@@?$unique_ptr@VClassWithDestructor@@U?$default_delete@VClassWithDestructor@@@std@@@std@@QEAA@XZ" = comdat any

$"??$?0H$0A@@?$optional@H@std@@QEAA@$$QEAH@Z" = comdat any

$"?value@?$optional@H@std@@QEGAAAEAHXZ" = comdat any

$"??0?$basic_string@DU?$char_traits@D@std@@V?$allocator@D@2@@std@@QEAA@QEBD@Z" = comdat any

$"??$?HDU?$char_traits@D@std@@V?$allocator@D@1@@std@@YA?AV?$basic_string@DU?$char_traits@D@std@@V?$allocator@D@2@@0@$$QEAV10@QEBD@Z" = comdat any

$"??$?HDU?$char_traits@D@std@@V?$allocator@D@1@@std@@YA?AV?$basic_string@DU?$char_traits@D@std@@V?$allocator@D@2@@0@$$QEAV10@0@Z" = comdat any

$"??0?$basic_string@DU?$char_traits@D@std@@V?$allocator@D@2@@std@@QEAA@AEBV01@@Z" = comdat any

$"??4?$basic_string@DU?$char_traits@D@std@@V?$allocator@D@2@@std@@QEAAAEAV01@$$QEAV01@@Z" = comdat any

$"??1?$basic_string@DU?$char_traits@D@std@@V?$allocator@D@2@@std@@QEAA@XZ" = comdat any

$"??$?8HH@std@@YA_NAEBV?$optional@H@0@0@Z" = comdat any

$"??0?$expected@HH@tl@@QEAA@XZ" = comdat any

$"?error@?$expected@HH@tl@@QEGAAAEAHXZ" = comdat any

$"??$make_shared@HH@std@@YA?AV?$shared_ptr@H@0@$$QEAH@Z" = comdat any

$"??1?$shared_ptr@H@std@@QEAA@XZ" = comdat any

$printf = comdat any

$"??0?$shared_ptr@H@std@@QEAA@XZ" = comdat any

$"??0?$shared_ptr@H@std@@QEAA@AEBV01@@Z" = comdat any

$"??$?8HH@std@@YA_NAEBV?$shared_ptr@H@0@0@Z" = comdat any

$"?use_count@?$_Ptr_base@H@std@@QEBAJXZ" = comdat any

$"??$?DH$0A@@?$shared_ptr@H@std@@QEBAAEAHXZ" = comdat any

$"??$?0U?$default_delete@H@std@@$0A@@?$unique_ptr@HU?$default_delete@H@std@@@std@@QEAA@XZ" = comdat any

$"??D?$unique_ptr@HU?$default_delete@H@std@@@std@@QEBAAEAHXZ" = comdat any

$"??1?$unique_ptr@VClassWithDestructor@@U?$default_delete@VClassWithDestructor@@@std@@@std@@QEAA@XZ" = comdat any

$"??1?$unique_ptr@HU?$default_delete@H@std@@@std@@QEAA@XZ" = comdat any

$"??$?0$$V@?$_Compressed_pair@U?$default_delete@VClassWithDestructor@@@std@@PEAVClassWithDestructor@@$00@std@@QEAA@U_Zero_then_variadic_args_t@1@@Z" = comdat any

$"??$forward@H@std@@YA$$QEAHAEAH@Z" = comdat any

$"??0?$_Optional_construct_base@H@std@@QEAA@Uin_place_t@1@$$QEAH@Z" = comdat any

$"??$?0H@?$_Optional_destruct_base@H$00@std@@QEAA@Uin_place_t@1@$$QEAH@Z" = comdat any

$"??0?$expected_move_assign_base@HH$00@detail@tl@@QEAA@XZ" = comdat any

$"??0?$expected_copy_assign_base@HH$00@detail@tl@@QEAA@XZ" = comdat any

$"??0?$expected_move_base@HH$00@detail@tl@@QEAA@XZ" = comdat any

$"??0?$expected_copy_base@HH$00@detail@tl@@QEAA@XZ" = comdat any

$"??0?$expected_operations_base@HH@detail@tl@@QEAA@XZ" = comdat any

$"??0?$expected_storage_base@HH$00$00@detail@tl@@QEAA@XZ" = comdat any

$"?err@?$expected@HH@tl@@AEAAAEAV?$unexpected@H@2@XZ" = comdat any

$"?value@?$unexpected@H@tl@@QEGAAAEAHXZ" = comdat any

$_vfprintf_l = comdat any

$__local_stdio_printf_options = comdat any

$"??0?$_Ptr_base@H@std@@IEAA@XZ" = comdat any

$"??$?0$$V@?$_Compressed_pair@U?$default_delete@H@std@@PEAH$00@std@@QEAA@U_Zero_then_variadic_args_t@1@@Z" = comdat any

$"?_Tidy_deallocate@?$basic_string@DU?$char_traits@D@std@@V?$allocator@D@2@@std@@AEAAXXZ" = comdat any

$"??1?$_Compressed_pair@V?$allocator@D@std@@V?$_String_val@U?$_Simple_types@D@std@@@2@$00@std@@QEAA@XZ" = comdat any

$"?_Orphan_all@_Container_base0@std@@QEAAXXZ" = comdat any

$"?_Large_string_engaged@?$_String_val@U?$_Simple_types@D@std@@@std@@QEBA_NXZ" = comdat any

$"?_Getal@?$basic_string@DU?$char_traits@D@std@@V?$allocator@D@2@@std@@AEAAAEAV?$allocator@D@2@XZ" = comdat any

$"??$_Destroy_in_place@PEAD@std@@YAXAEAPEAD@Z" = comdat any

$"?deallocate@?$allocator@D@std@@QEAAXQEAD_K@Z" = comdat any

$"?assign@?$_Narrow_char_traits@DH@std@@SAXAEADAEBD@Z" = comdat any

$"?_Get_first@?$_Compressed_pair@V?$allocator@D@std@@V?$_String_val@U?$_Simple_types@D@std@@@2@$00@std@@QEAAAEAV?$allocator@D@2@XZ" = comdat any

$"??$_Deallocate@$0BA@$0A@@std@@YAXPEAX_K@Z" = comdat any

$"?_Adjust_manually_vector_aligned@std@@YAXAEAPEAXAEA_K@Z" = comdat any

$"??1?$_String_val@U?$_Simple_types@D@std@@@std@@QEAA@XZ" = comdat any

$"??1_Bxty@?$_String_val@U?$_Simple_types@D@std@@@std@@QEAA@XZ" = comdat any

$"?_Get_first@?$_Compressed_pair@U?$default_delete@VClassWithDestructor@@@std@@PEAVClassWithDestructor@@$00@std@@QEAAAEAU?$default_delete@VClassWithDestructor@@@2@XZ" = comdat any

$"??R?$default_delete@VClassWithDestructor@@@std@@QEBAXPEAVClassWithDestructor@@@Z" = comdat any

$"?_Throw_bad_optional_access@std@@YAXXZ" = comdat any

$"??0bad_optional_access@std@@QEAA@XZ" = comdat any

$"??0bad_optional_access@std@@QEAA@AEBV01@@Z" = comdat any

$"??0exception@std@@QEAA@AEBV01@@Z" = comdat any

$"??1bad_optional_access@std@@UEAA@XZ" = comdat any

$"??0exception@std@@QEAA@XZ" = comdat any

$"??_Gbad_optional_access@std@@UEAAPEAXI@Z" = comdat any

$"?what@bad_optional_access@std@@UEBAPEBDXZ" = comdat any

$"??_Gexception@std@@UEAAPEAXI@Z" = comdat any

$"?what@exception@std@@UEBAPEBDXZ" = comdat any

$"??1exception@std@@UEAA@XZ" = comdat any

$"??$?0$$V@?$_Compressed_pair@V?$allocator@D@std@@V?$_String_val@U?$_Simple_types@D@std@@@2@$00@std@@QEAA@U_Zero_then_variadic_args_t@1@@Z" = comdat any

$"??0_Fake_proxy_ptr_impl@std@@QEAA@AEBU_Fake_allocator@1@AEBU_Container_base0@1@@Z" = comdat any

$"?_Tidy_init@?$basic_string@DU?$char_traits@D@std@@V?$allocator@D@2@@std@@AEAAXXZ" = comdat any

$"?assign@?$basic_string@DU?$char_traits@D@std@@V?$allocator@D@2@@std@@QEAAAEAV12@QEBD@Z" = comdat any

$"?_Release@_Fake_proxy_ptr_impl@std@@QEAAXXZ" = comdat any

$"??0?$allocator@D@std@@QEAA@XZ" = comdat any

$"??0?$_String_val@U?$_Simple_types@D@std@@@std@@QEAA@XZ" = comdat any

$"??0_Bxty@?$_String_val@U?$_Simple_types@D@std@@@std@@QEAA@XZ" = comdat any

$"?assign@?$basic_string@DU?$char_traits@D@std@@V?$allocator@D@2@@std@@QEAAAEAV12@QEBD_K@Z" = comdat any

$"??$_Convert_size@_K@std@@YA_K_K@Z" = comdat any

$"?length@?$_Narrow_char_traits@DH@std@@SA_KQEBD@Z" = comdat any

$"?_Myptr@?$_String_val@U?$_Simple_types@D@std@@@std@@QEAAPEADXZ" = comdat any

$"?move@?$_Narrow_char_traits@DH@std@@SAPEADQEADQEBD_K@Z" = comdat any

$"??$_Reallocate_for@V<lambda_1>@?0??assign@?$basic_string@DU?$char_traits@D@std@@V?$allocator@D@2@@std@@QEAAAEAV34@QEBD_K@Z@PEBD@?$basic_string@DU?$char_traits@D@std@@V?$allocator@D@2@@std@@AEAAAEAV01@_KV<lambda_1>@?0??assign@01@QEAAAEAV01@QEBD0@Z@PEBD@Z" = comdat any

$"??$_Unfancy@D@std@@YAPEADPEAD@Z" = comdat any

$"?max_size@?$basic_string@DU?$char_traits@D@std@@V?$allocator@D@2@@std@@QEBA_KXZ" = comdat any

$"?_Xlen_string@std@@YAXXZ" = comdat any

$"?_Calculate_growth@?$basic_string@DU?$char_traits@D@std@@V?$allocator@D@2@@std@@AEBA_K_K@Z" = comdat any

$"?allocate@?$allocator@D@std@@QEAAPEAD_K@Z" = comdat any

$"??R<lambda_1>@?0??assign@?$basic_string@DU?$char_traits@D@std@@V?$allocator@D@2@@std@@QEAAAEAV23@QEBD_K@Z@QEBA?A?<auto>@@QEAD10@Z" = comdat any

$"??$_Construct_in_place@PEADAEBQEAD@std@@YAXAEAPEADAEBQEAD@Z" = comdat any

$"?max_size@?$_Default_allocator_traits@V?$allocator@D@std@@@std@@SA_KAEBV?$allocator@D@2@@Z" = comdat any

$"?_Getal@?$basic_string@DU?$char_traits@D@std@@V?$allocator@D@2@@std@@AEBAAEBV?$allocator@D@2@XZ" = comdat any

$"??$max@_K@std@@YAAEB_KAEB_K0@Z" = comdat any

$"??$min@_K@std@@YAAEB_KAEB_K0@Z" = comdat any

$"?max@?$numeric_limits@_J@std@@SA_JXZ" = comdat any

$"?_Get_first@?$_Compressed_pair@V?$allocator@D@std@@V?$_String_val@U?$_Simple_types@D@std@@@2@$00@std@@QEBAAEBV?$allocator@D@2@XZ" = comdat any

$"?_Calculate_growth@?$basic_string@DU?$char_traits@D@std@@V?$allocator@D@2@@std@@CA_K_K00@Z" = comdat any

$"??$_Allocate@$0BA@U_Default_allocate_traits@std@@$0A@@std@@YAPEAX_K@Z" = comdat any

$"??$_Get_size_of_n@$00@std@@YA_K_K@Z" = comdat any

$"??$_Allocate_manually_vector_aligned@U_Default_allocate_traits@std@@@std@@YAPEAX_K@Z" = comdat any

$"?_Allocate@_Default_allocate_traits@std@@SAPEAX_K@Z" = comdat any

$"?_Throw_bad_array_new_length@std@@YAXXZ" = comdat any

$"??0bad_array_new_length@std@@QEAA@XZ" = comdat any

$"??0bad_array_new_length@std@@QEAA@AEBV01@@Z" = comdat any

$"??0bad_alloc@std@@QEAA@AEBV01@@Z" = comdat any

$"??1bad_array_new_length@std@@UEAA@XZ" = comdat any

$"??0bad_alloc@std@@AEAA@QEBD@Z" = comdat any

$"??_Gbad_array_new_length@std@@UEAAPEAXI@Z" = comdat any

$"??0exception@std@@QEAA@QEBDH@Z" = comdat any

$"??_Gbad_alloc@std@@UEAAPEAXI@Z" = comdat any

$"??1bad_alloc@std@@UEAA@XZ" = comdat any

$"?copy@?$_Narrow_char_traits@DH@std@@SAPEADQEADQEBD_K@Z" = comdat any

$"??$addressof@PEAD@std@@YAPEAPEADAEAPEAD@Z" = comdat any

$"??$forward@AEBQEAD@std@@YAAEBQEADAEBQEAD@Z" = comdat any

$"?select_on_container_copy_construction@?$_Default_allocator_traits@V?$allocator@D@std@@@std@@SA?AV?$allocator@D@2@AEBV32@@Z" = comdat any

$"??$?0V?$allocator@D@std@@$$V@?$_Compressed_pair@V?$allocator@D@std@@V?$_String_val@U?$_Simple_types@D@std@@@2@$00@std@@QEAA@U_One_then_variadic_args_t@1@$$QEAV?$allocator@D@1@@Z" = comdat any

$"?_Construct_lv_contents@?$basic_string@DU?$char_traits@D@std@@V?$allocator@D@2@@std@@AEAAXAEBV12@@Z" = comdat any

$"??$forward@V?$allocator@D@std@@@std@@YA$$QEAV?$allocator@D@0@AEAV10@@Z" = comdat any

$"?_Myptr@?$_String_val@U?$_Simple_types@D@std@@@std@@QEBAPEBDXZ" = comdat any

$"??0?$basic_string@DU?$char_traits@D@std@@V?$allocator@D@2@@std@@QEAA@U_String_constructor_concat_tag@1@AEAV01@1@Z" = comdat any

$"??$?0AEAV?$allocator@D@std@@$$V@?$_Compressed_pair@V?$allocator@D@std@@V?$_String_val@U?$_Simple_types@D@std@@@2@$00@std@@QEAA@U_One_then_variadic_args_t@1@AEAV?$allocator@D@1@@Z" = comdat any

$"?_Alloc_proxy@_Container_base0@std@@QEAAXAEBU_Fake_allocator@2@@Z" = comdat any

$"?_Take_contents@?$basic_string@DU?$char_traits@D@std@@V?$allocator@D@2@@std@@AEAAXAEAV12@U?$integral_constant@_N$00@2@@Z" = comdat any

$"??$_Allocators_equal@V?$allocator@D@std@@@std@@YA_NAEBV?$allocator@D@0@0@Z" = comdat any

$"??$forward@AEAV?$allocator@D@std@@@std@@YAAEAV?$allocator@D@0@AEAV10@@Z" = comdat any

$"?_Memcpy_val_from@?$basic_string@DU?$char_traits@D@std@@V?$allocator@D@2@@std@@AEAAXAEBV12@@Z" = comdat any

$"??$addressof@V?$_String_val@U?$_Simple_types@D@std@@@std@@@std@@YAPEAV?$_String_val@U?$_Simple_types@D@std@@@0@AEAV10@@Z" = comdat any

$"??$addressof@$$CBV?$_String_val@U?$_Simple_types@D@std@@@std@@@std@@YAPEBV?$_String_val@U?$_Simple_types@D@std@@@0@AEBV10@@Z" = comdat any

$"??$move@AEAV?$basic_string@DU?$char_traits@D@std@@V?$allocator@D@2@@std@@@std@@YA$$QEAV?$basic_string@DU?$char_traits@D@std@@V?$allocator@D@2@@0@AEAV10@@Z" = comdat any

$"?append@?$basic_string@DU?$char_traits@D@std@@V?$allocator@D@2@@std@@QEAAAEAV12@QEBD@Z" = comdat any

$"??0?$basic_string@DU?$char_traits@D@std@@V?$allocator@D@2@@std@@QEAA@$$QEAV01@@Z" = comdat any

$"?append@?$basic_string@DU?$char_traits@D@std@@V?$allocator@D@2@@std@@QEAAAEAV12@QEBD_K@Z" = comdat any

$"??$_Reallocate_grow_by@V<lambda_1>@?0??append@?$basic_string@DU?$char_traits@D@std@@V?$allocator@D@2@@std@@QEAAAEAV34@QEBD_K@Z@PEBD_K@?$basic_string@DU?$char_traits@D@std@@V?$allocator@D@2@@std@@AEAAAEAV01@_KV<lambda_1>@?0??append@01@QEAAAEAV01@QEBD0@Z@PEBD_K@Z" = comdat any

$"??R<lambda_1>@?0??append@?$basic_string@DU?$char_traits@D@std@@V?$allocator@D@2@@std@@QEAAAEAV23@QEBD_K@Z@QEBA?A?<auto>@@QEAD0101@Z" = comdat any

$"??$move@AEAV?$allocator@D@std@@@std@@YA$$QEAV?$allocator@D@0@AEAV10@@Z" = comdat any

$"??$addressof@V?$basic_string@DU?$char_traits@D@std@@V?$allocator@D@2@@std@@@std@@YAPEAV?$basic_string@DU?$char_traits@D@std@@V?$allocator@D@2@@0@AEAV10@@Z" = comdat any

$"?_Move_assign@?$basic_string@DU?$char_traits@D@std@@V?$allocator@D@2@@std@@AEAAXAEAV12@U_Equal_allocators@2@@Z" = comdat any

$"??$_Pocma@V?$allocator@D@std@@@std@@YAXAEAV?$allocator@D@0@0@Z" = comdat any

$"?has_value@?$optional@H@std@@QEBA_NXZ" = comdat any

$"??D?$optional@H@std@@QEGBAAEBHXZ" = comdat any

$"??$?0H@?$_Ref_count_obj2@H@std@@QEAA@$$QEAH@Z" = comdat any

$"??$_Set_ptr_rep_and_enable_shared@H@?$shared_ptr@H@std@@AEAAXQEAHQEAV_Ref_count_base@1@@Z" = comdat any

$"??$addressof@H@std@@YAPEAHAEAH@Z" = comdat any

$"??0_Ref_count_base@std@@IEAA@XZ" = comdat any

$"??$_Construct_in_place@HH@std@@YAXAEAH$$QEAH@Z" = comdat any

$"?_Destroy@?$_Ref_count_obj2@H@std@@EEAAXXZ" = comdat any

$"?_Delete_this@?$_Ref_count_obj2@H@std@@EEAAXXZ" = comdat any

$"??_G?$_Ref_count_obj2@H@std@@UEAAPEAXI@Z" = comdat any

$"?_Get_deleter@_Ref_count_base@std@@UEBAPEAXAEBVtype_info@@@Z" = comdat any

$"??_G_Ref_count_base@std@@UEAAPEAXI@Z" = comdat any

$"??$_Destroy_in_place@H@std@@YAXAEAH@Z" = comdat any

$"??1?$_Ref_count_obj2@H@std@@UEAA@XZ" = comdat any

$"??1_Ref_count_base@std@@UEAA@XZ" = comdat any

$"?_Decref@?$_Ptr_base@H@std@@IEAAXXZ" = comdat any

$"?_Decref@_Ref_count_base@std@@QEAAXXZ" = comdat any

$"?_Decwref@_Ref_count_base@std@@QEAAXXZ" = comdat any

$"??$_Copy_construct_from@H@?$_Ptr_base@H@std@@IEAAXAEBV?$shared_ptr@H@1@@Z" = comdat any

$"?_Incref@?$_Ptr_base@H@std@@IEBAXXZ" = comdat any

$"?_Incref@_Ref_count_base@std@@QEAAXXZ" = comdat any

$"?get@?$_Ptr_base@H@std@@IEBAPEAHXZ" = comdat any

$"?_Use_count@_Ref_count_base@std@@QEBAJXZ" = comdat any

$"?_Get_first@?$_Compressed_pair@U?$default_delete@H@std@@PEAH$00@std@@QEAAAEAU?$default_delete@H@2@XZ" = comdat any

$"??R?$default_delete@H@std@@QEBAXPEAH@Z" = comdat any

$"??_C@_0MO@PNCLFKFH@a?$DN5?$DLstd?3?3optional?$DMint?$DO?5m?5?$DN?5a?$DLFAI@" = comdat any

$"??_C@_0BP@FJINOLPO@?$DLg_shouldPauseExecute?5?$DN?5false?$DL?$AA@" = comdat any

$"??_C@_0FO@BMCOEJHP@?7?$CDdefine?5FAIL_TEST_IF_FALSE?$CIcond@" = comdat any

$"??_C@_0EF@GDILOBLA@std?3?3optional?$DMClassWithDestructo@" = comdat any

$"??_C@_0BHI@LCBKPAJ@a?$DN5?$DLFAIL_TEST_IF_FALSE?$CIa?4value?$CI?$CJ@" = comdat any

$"??_C@_0GI@LCFJNAAH@std?3?3expected?$DMClassWithDestructo@" = comdat any

$"??_C@_0JB@GCMHBBE@std?3?3shared_ptr?$DMClassWithDestruc@" = comdat any

$"??_C@_0EC@GOJAACBF@ms?4reset?$CI?$CJ?$DLFAIL_TEST_IF_FALSE?$CInu@" = comdat any

$"??_C@_02DPKJAMEF@?$CFd?$AA@" = comdat any

$"??_C@_0BCH@HHLLNHGI@a?4reset?$CI?$CJ?$DLauto?5f?5?$DN?5a?$DLFAIL_TEST_I@" = comdat any

$"??_C@_0BF@ONGAOCMO@a?4reset?$CInew?5int?$CI5?$CJ?$CJ?$DL?$AA@" = comdat any

$"??_C@_0LD@NMMKOFBP@a?4reset?$CI?$CJ?$DLstd?3?3unique_ptr?$DMint?$DO?5f@" = comdat any

$"??_C@_0PH@HEHHHG@auto?5aa?5?$DN?5ClassWithDestructor?$CI2?$CJ@" = comdat any

$"??_C@_0KI@EBHLGOBM@PROCESS_INFORMATION?5w?5?$DN?5?$HL?$HN?$DL?6s?4cb@" = comdat any

$"??_C@_0FM@BHMHCBJK@test?3?3expression?3?3MyStruct?5s?$DLaut@" = comdat any

$"??_C@_0FN@ECLNLPJK@std?3?3shared_ptr?$DMint?$DO?5f?$DLstd?3?3opti@" = comdat any

$"?in_place@std@@3Uin_place_t@1@B" = comdat any

$"?_OptionsStorage@?1??__local_stdio_printf_options@@9@4_KA" = comdat any

$"??_R0?AVbad_optional_access@std@@@8" = comdat any

$"_CT??_R0?AVbad_optional_access@std@@@8??0bad_optional_access@std@@QEAA@AEBV01@@Z24" = comdat any

$"??_R0?AVexception@std@@@8" = comdat any

$"_CT??_R0?AVexception@std@@@8??0exception@std@@QEAA@AEBV01@@Z24" = comdat any

$"_CTA2?AVbad_optional_access@std@@" = comdat any

$"_TI2?AVbad_optional_access@std@@" = comdat any

$"??_7bad_optional_access@std@@6B@" = comdat largest

$"??_R4bad_optional_access@std@@6B@" = comdat any

$"??_R3bad_optional_access@std@@8" = comdat any

$"??_R2bad_optional_access@std@@8" = comdat any

$"??_R1A@?0A@EA@bad_optional_access@std@@8" = comdat any

$"??_R1A@?0A@EA@exception@std@@8" = comdat any

$"??_R3exception@std@@8" = comdat any

$"??_R2exception@std@@8" = comdat any

$"??_7exception@std@@6B@" = comdat largest

$"??_R4exception@std@@6B@" = comdat any

$"??_C@_0BC@EOODALEL@Unknown?5exception?$AA@" = comdat any

$"??_C@_0BE@LMOOKEAD@Bad?5optional?5access?$AA@" = comdat any

$"??_C@_0BA@JFNIOLAK@string?5too?5long?$AA@" = comdat any

$"??_R0?AVbad_array_new_length@std@@@8" = comdat any

$"_CT??_R0?AVbad_array_new_length@std@@@8??0bad_array_new_length@std@@QEAA@AEBV01@@Z24" = comdat any

$"??_R0?AVbad_alloc@std@@@8" = comdat any

$"_CT??_R0?AVbad_alloc@std@@@8??0bad_alloc@std@@QEAA@AEBV01@@Z24" = comdat any

$"_CTA3?AVbad_array_new_length@std@@" = comdat any

$"_TI3?AVbad_array_new_length@std@@" = comdat any

$"??_C@_0BF@KINCDENJ@bad?5array?5new?5length?$AA@" = comdat any

$"??_7bad_array_new_length@std@@6B@" = comdat largest

$"??_R4bad_array_new_length@std@@6B@" = comdat any

$"??_R3bad_array_new_length@std@@8" = comdat any

$"??_R2bad_array_new_length@std@@8" = comdat any

$"??_R1A@?0A@EA@bad_array_new_length@std@@8" = comdat any

$"??_R1A@?0A@EA@bad_alloc@std@@8" = comdat any

$"??_R3bad_alloc@std@@8" = comdat any

$"??_R2bad_alloc@std@@8" = comdat any

$"??_7bad_alloc@std@@6B@" = comdat largest

$"??_R4bad_alloc@std@@6B@" = comdat any

$"??_7?$_Ref_count_obj2@H@std@@6B@" = comdat largest

$"??_R4?$_Ref_count_obj2@H@std@@6B@" = comdat any

$"??_R0?AV?$_Ref_count_obj2@H@std@@@8" = comdat any

$"??_R3?$_Ref_count_obj2@H@std@@8" = comdat any

$"??_R2?$_Ref_count_obj2@H@std@@8" = comdat any

$"??_R1A@?0A@EA@?$_Ref_count_obj2@H@std@@8" = comdat any

$"??_R1A@?0A@EA@_Ref_count_base@std@@8" = comdat any

$"??_R0?AV_Ref_count_base@std@@@8" = comdat any

$"??_R3_Ref_count_base@std@@8" = comdat any

$"??_R2_Ref_count_base@std@@8" = comdat any

$"??_7_Ref_count_base@std@@6B@" = comdat largest

$"??_R4_Ref_count_base@std@@6B@" = comdat any

@"?g_counter@expression@test@@3HA" = dso_local dllexport global i32 0, align 4, !dbg !0
@"??_C@_0MO@PNCLFKFH@a?$DN5?$DLstd?3?3optional?$DMint?$DO?5m?5?$DN?5a?$DLFAI@" = linkonce_odr dso_local unnamed_addr constant [206 x i8] c"a=5;std::optional<int> m = a;FAIL_TEST_IF_FALSE(m.value()==5); a=a.value()+1;if(!a){FAIL_TEST_IF_FALSE(false);}FAIL_TEST_IF_FALSE(!std::optional<int>());FAIL_TEST_IF_FALSE(a==a);a = 5;a = returnOptional();\00", comdat, align 1
@"??_C@_0BP@FJINOLPO@?$DLg_shouldPauseExecute?5?$DN?5false?$DL?$AA@" = linkonce_odr dso_local unnamed_addr constant [31 x i8] c";g_shouldPauseExecute = false;\00", comdat, align 1
@"??_C@_0FO@BMCOEJHP@?7?$CDdefine?5FAIL_TEST_IF_FALSE?$CIcond@" = linkonce_odr dso_local unnamed_addr constant [94 x i8] c"\09#define FAIL_TEST_IF_FALSE(condition) if (!(condition)) {print(#condition);__debugbreak();}\0A\00", comdat, align 1
@"?g_expr@@3V?$basic_string@DU?$char_traits@D@std@@V?$allocator@D@2@@std@@A" = external dso_local global %"class.std::basic_string", align 8
@"?g_shouldPauseExecute@@3_NA" = external dso_local global i8, align 1
@"?g_notifyBp@@3_NA" = external dso_local global i8, align 1
@"??_C@_0EF@GDILOBLA@std?3?3optional?$DMClassWithDestructo@" = linkonce_odr dso_local unnamed_addr constant [69 x i8] c"std::optional<ClassWithDestructor> m;m=ClassWithDestructor(1); m =m;\00", comdat, align 1
@"??_C@_0BHI@LCBKPAJ@a?$DN5?$DLFAIL_TEST_IF_FALSE?$CIa?4value?$CI?$CJ@" = linkonce_odr dso_local unnamed_addr constant [376 x i8] c"a=5;FAIL_TEST_IF_FALSE(a.value()==5);FAIL_TEST_IF_FALSE(a.has_value());FAIL_TEST_IF_FALSE(a==a);FAIL_TEST_IF_FALSE(a);FAIL_TEST_IF_FALSE(!!a);fs.value() = 6;FAIL_TEST_IF_FALSE(6 == fs.value_or(3));a = fs;FAIL_TEST_IF_FALSE(a.value() == 6);a = tl::make_unexpected(2);FAIL_TEST_IF_FALSE(!a.has_value());FAIL_TEST_IF_FALSE(2 == a.error());FAIL_TEST_IF_FALSE(3 == a.value_or(3));\00", comdat, align 1
@"??_C@_0GI@LCFJNAAH@std?3?3expected?$DMClassWithDestructo@" = linkonce_odr dso_local unnamed_addr constant [104 x i8] c"std::expected<ClassWithDestructor, int> m(1);m=ClassWithDestructor(1); m =m;FAIL_TEST_IF_FALSE(m == m);\00", comdat, align 1
@"??_C@_0JB@GCMHBBE@std?3?3shared_ptr?$DMClassWithDestruc@" = linkonce_odr dso_local unnamed_addr constant [145 x i8] c"std::shared_ptr<ClassWithDestructor>ms(new ClassWithDestructor(2));FAIL_TEST_IF_FALSE(2==ms->m_r);ms =ms;ms.get()->m_r = ms.get()->m_r;*ms = *ms\00", comdat, align 1
@"??_C@_0EC@GOJAACBF@ms?4reset?$CI?$CJ?$DLFAIL_TEST_IF_FALSE?$CInu@" = linkonce_odr dso_local unnamed_addr constant [66 x i8] c"ms.reset();FAIL_TEST_IF_FALSE(nullptr == ms);ms = returnShared();\00", comdat, align 1
@"??_C@_02DPKJAMEF@?$CFd?$AA@" = linkonce_odr dso_local unnamed_addr constant [3 x i8] c"%d\00", comdat, align 1
@"??_C@_0BCH@HHLLNHGI@a?4reset?$CI?$CJ?$DLauto?5f?5?$DN?5a?$DLFAIL_TEST_I@" = linkonce_odr dso_local unnamed_addr constant [295 x i8] c"a.reset();auto f = a;FAIL_TEST_IF_FALSE(a==f);FAIL_TEST_IF_FALSE(nullptr == a);FAIL_TEST_IF_FALSE(nullptr == a.get());a.reset(new int(5));FAIL_TEST_IF_FALSE((bool)a);FAIL_TEST_IF_FALSE(*a == 5);;printf(\22value is %d\\n\22, a.use_count());printf(\22value is %d\\n\22, *a);printf(\22value is %p\\n\22, a.get())\00", comdat, align 1
@"??_C@_0BF@ONGAOCMO@a?4reset?$CInew?5int?$CI5?$CJ?$CJ?$DL?$AA@" = linkonce_odr dso_local unnamed_addr constant [21 x i8] c"a.reset(new int(5));\00", comdat, align 1
@"??_C@_0LD@NMMKOFBP@a?4reset?$CI?$CJ?$DLstd?3?3unique_ptr?$DMint?$DO?5f@" = linkonce_odr dso_local unnamed_addr constant [179 x i8] c"a.reset();std::unique_ptr<int> f;f.reset(new int(5));a.reset(new int(5))FAIL_TEST_IF_FALSE(*f == 5);FAIL_TEST_IF_FALSE(f.get() != nullptr);FAIL_TEST_IF_FALSE(a.get() != nullptr);\00", comdat, align 1
@"??_C@_0PH@HEHHHG@auto?5aa?5?$DN?5ClassWithDestructor?$CI2?$CJ@" = linkonce_odr dso_local unnamed_addr constant [247 x i8] c"auto aa = ClassWithDestructor(2);std::unique_ptr<ClassWithDestructor> ms(new ClassWithDestructor(2));FAIL_TEST_IF_FALSE(2==ms->m_r);*ms = *ms;ms.get()->m_r = ms.get()->m_r; ms = std::make_unique<ClassWithDestructor>(2); ms = retFunc();ms.reset();\00", comdat, align 1
@"??_C@_0KI@EBHLGOBM@PROCESS_INFORMATION?5w?5?$DN?5?$HL?$HN?$DL?6s?4cb@" = linkonce_odr dso_local unnamed_addr constant [168 x i8] c"PROCESS_INFORMATION w = {};\0As.cb = sizeof(s);\0Ap.hThread = GetCurrentThread();RtlCaptureContext(&context);context.R10 = 8;FAIL_TEST_IF_FALSE(GetModuleHandle(nullptr)); \00", comdat, align 1
@"??_C@_0FM@BHMHCBJK@test?3?3expression?3?3MyStruct?5s?$DLaut@" = linkonce_odr dso_local unnamed_addr constant [92 x i8] c"test::expression::MyStruct s;auto f = std::make_shared<test::expression::MyStruct>();f = f;\00", comdat, align 1
@"??_C@_0FN@ECLNLPJK@std?3?3shared_ptr?$DMint?$DO?5f?$DLstd?3?3opti@" = linkonce_odr dso_local unnamed_addr constant [93 x i8] c"std::shared_ptr<int> f;std::optional<int> m;tl::make_unexpected(2);;std::unique_ptr<int> sk;\00", comdat, align 1
@"?in_place@std@@3Uin_place_t@1@B" = linkonce_odr dso_local constant %"struct.std::in_place_t" zeroinitializer, comdat, align 1, !dbg !6
@"?_OptionsStorage@?1??__local_stdio_printf_options@@9@4_KA" = linkonce_odr dso_local global i64 0, comdat, align 8, !dbg !17
@"??_7type_info@@6B@" = external constant i8*
@"??_R0?AVbad_optional_access@std@@@8" = linkonce_odr global %rtti.TypeDescriptor29 { i8** @"??_7type_info@@6B@", i8* null, [30 x i8] c".?AVbad_optional_access@std@@\00" }, comdat
@__ImageBase = external dso_local constant i8
@"_CT??_R0?AVbad_optional_access@std@@@8??0bad_optional_access@std@@QEAA@AEBV01@@Z24" = linkonce_odr unnamed_addr constant %eh.CatchableType { i32 0, i32 trunc (i64 sub nuw nsw (i64 ptrtoint (%rtti.TypeDescriptor29* @"??_R0?AVbad_optional_access@std@@@8" to i64), i64 ptrtoint (i8* @__ImageBase to i64)) to i32), i32 0, i32 -1, i32 0, i32 24, i32 trunc (i64 sub nuw nsw (i64 ptrtoint (%"class.std::bad_optional_access"* (%"class.std::bad_optional_access"*, %"class.std::bad_optional_access"*)* @"??0bad_optional_access@std@@QEAA@AEBV01@@Z" to i64), i64 ptrtoint (i8* @__ImageBase to i64)) to i32) }, section ".xdata", comdat
@"??_R0?AVexception@std@@@8" = linkonce_odr global %rtti.TypeDescriptor19 { i8** @"??_7type_info@@6B@", i8* null, [20 x i8] c".?AVexception@std@@\00" }, comdat
@"_CT??_R0?AVexception@std@@@8??0exception@std@@QEAA@AEBV01@@Z24" = linkonce_odr unnamed_addr constant %eh.CatchableType { i32 0, i32 trunc (i64 sub nuw nsw (i64 ptrtoint (%rtti.TypeDescriptor19* @"??_R0?AVexception@std@@@8" to i64), i64 ptrtoint (i8* @__ImageBase to i64)) to i32), i32 0, i32 -1, i32 0, i32 24, i32 trunc (i64 sub nuw nsw (i64 ptrtoint (%"class.std::exception"* (%"class.std::exception"*, %"class.std::exception"*)* @"??0exception@std@@QEAA@AEBV01@@Z" to i64), i64 ptrtoint (i8* @__ImageBase to i64)) to i32) }, section ".xdata", comdat
@"_CTA2?AVbad_optional_access@std@@" = linkonce_odr unnamed_addr constant %eh.CatchableTypeArray.2 { i32 2, [2 x i32] [i32 trunc (i64 sub nuw nsw (i64 ptrtoint (%eh.CatchableType* @"_CT??_R0?AVbad_optional_access@std@@@8??0bad_optional_access@std@@QEAA@AEBV01@@Z24" to i64), i64 ptrtoint (i8* @__ImageBase to i64)) to i32), i32 trunc (i64 sub nuw nsw (i64 ptrtoint (%eh.CatchableType* @"_CT??_R0?AVexception@std@@@8??0exception@std@@QEAA@AEBV01@@Z24" to i64), i64 ptrtoint (i8* @__ImageBase to i64)) to i32)] }, section ".xdata", comdat
@"_TI2?AVbad_optional_access@std@@" = linkonce_odr unnamed_addr constant %eh.ThrowInfo { i32 0, i32 trunc (i64 sub nuw nsw (i64 ptrtoint (void (%"class.std::bad_optional_access"*)* @"??1bad_optional_access@std@@UEAA@XZ" to i64), i64 ptrtoint (i8* @__ImageBase to i64)) to i32), i32 0, i32 trunc (i64 sub nuw nsw (i64 ptrtoint (%eh.CatchableTypeArray.2* @"_CTA2?AVbad_optional_access@std@@" to i64), i64 ptrtoint (i8* @__ImageBase to i64)) to i32) }, section ".xdata", comdat
@0 = private unnamed_addr constant { [3 x i8*] } { [3 x i8*] [i8* bitcast (%rtti.CompleteObjectLocator* @"??_R4bad_optional_access@std@@6B@" to i8*), i8* bitcast (i8* (%"class.std::bad_optional_access"*, i32)* @"??_Gbad_optional_access@std@@UEAAPEAXI@Z" to i8*), i8* bitcast (i8* (%"class.std::bad_optional_access"*)* @"?what@bad_optional_access@std@@UEBAPEBDXZ" to i8*)] }, comdat($"??_7bad_optional_access@std@@6B@")
@"??_R4bad_optional_access@std@@6B@" = linkonce_odr constant %rtti.CompleteObjectLocator { i32 1, i32 0, i32 0, i32 trunc (i64 sub nuw nsw (i64 ptrtoint (%rtti.TypeDescriptor29* @"??_R0?AVbad_optional_access@std@@@8" to i64), i64 ptrtoint (i8* @__ImageBase to i64)) to i32), i32 trunc (i64 sub nuw nsw (i64 ptrtoint (%rtti.ClassHierarchyDescriptor* @"??_R3bad_optional_access@std@@8" to i64), i64 ptrtoint (i8* @__ImageBase to i64)) to i32), i32 trunc (i64 sub nuw nsw (i64 ptrtoint (%rtti.CompleteObjectLocator* @"??_R4bad_optional_access@std@@6B@" to i64), i64 ptrtoint (i8* @__ImageBase to i64)) to i32) }, comdat
@"??_R3bad_optional_access@std@@8" = linkonce_odr constant %rtti.ClassHierarchyDescriptor { i32 0, i32 0, i32 2, i32 trunc (i64 sub nuw nsw (i64 ptrtoint ([3 x i32]* @"??_R2bad_optional_access@std@@8" to i64), i64 ptrtoint (i8* @__ImageBase to i64)) to i32) }, comdat
@"??_R2bad_optional_access@std@@8" = linkonce_odr constant [3 x i32] [i32 trunc (i64 sub nuw nsw (i64 ptrtoint (%rtti.BaseClassDescriptor* @"??_R1A@?0A@EA@bad_optional_access@std@@8" to i64), i64 ptrtoint (i8* @__ImageBase to i64)) to i32), i32 trunc (i64 sub nuw nsw (i64 ptrtoint (%rtti.BaseClassDescriptor* @"??_R1A@?0A@EA@exception@std@@8" to i64), i64 ptrtoint (i8* @__ImageBase to i64)) to i32), i32 0], comdat
@"??_R1A@?0A@EA@bad_optional_access@std@@8" = linkonce_odr constant %rtti.BaseClassDescriptor { i32 trunc (i64 sub nuw nsw (i64 ptrtoint (%rtti.TypeDescriptor29* @"??_R0?AVbad_optional_access@std@@@8" to i64), i64 ptrtoint (i8* @__ImageBase to i64)) to i32), i32 1, i32 0, i32 -1, i32 0, i32 64, i32 trunc (i64 sub nuw nsw (i64 ptrtoint (%rtti.ClassHierarchyDescriptor* @"??_R3bad_optional_access@std@@8" to i64), i64 ptrtoint (i8* @__ImageBase to i64)) to i32) }, comdat
@"??_R1A@?0A@EA@exception@std@@8" = linkonce_odr constant %rtti.BaseClassDescriptor { i32 trunc (i64 sub nuw nsw (i64 ptrtoint (%rtti.TypeDescriptor19* @"??_R0?AVexception@std@@@8" to i64), i64 ptrtoint (i8* @__ImageBase to i64)) to i32), i32 0, i32 0, i32 -1, i32 0, i32 64, i32 trunc (i64 sub nuw nsw (i64 ptrtoint (%rtti.ClassHierarchyDescriptor* @"??_R3exception@std@@8" to i64), i64 ptrtoint (i8* @__ImageBase to i64)) to i32) }, comdat
@"??_R3exception@std@@8" = linkonce_odr constant %rtti.ClassHierarchyDescriptor { i32 0, i32 0, i32 1, i32 trunc (i64 sub nuw nsw (i64 ptrtoint ([2 x i32]* @"??_R2exception@std@@8" to i64), i64 ptrtoint (i8* @__ImageBase to i64)) to i32) }, comdat
@"??_R2exception@std@@8" = linkonce_odr constant [2 x i32] [i32 trunc (i64 sub nuw nsw (i64 ptrtoint (%rtti.BaseClassDescriptor* @"??_R1A@?0A@EA@exception@std@@8" to i64), i64 ptrtoint (i8* @__ImageBase to i64)) to i32), i32 0], comdat
@1 = private unnamed_addr constant { [3 x i8*] } { [3 x i8*] [i8* bitcast (%rtti.CompleteObjectLocator* @"??_R4exception@std@@6B@" to i8*), i8* bitcast (i8* (%"class.std::exception"*, i32)* @"??_Gexception@std@@UEAAPEAXI@Z" to i8*), i8* bitcast (i8* (%"class.std::exception"*)* @"?what@exception@std@@UEBAPEBDXZ" to i8*)] }, comdat($"??_7exception@std@@6B@")
@"??_R4exception@std@@6B@" = linkonce_odr constant %rtti.CompleteObjectLocator { i32 1, i32 0, i32 0, i32 trunc (i64 sub nuw nsw (i64 ptrtoint (%rtti.TypeDescriptor19* @"??_R0?AVexception@std@@@8" to i64), i64 ptrtoint (i8* @__ImageBase to i64)) to i32), i32 trunc (i64 sub nuw nsw (i64 ptrtoint (%rtti.ClassHierarchyDescriptor* @"??_R3exception@std@@8" to i64), i64 ptrtoint (i8* @__ImageBase to i64)) to i32), i32 trunc (i64 sub nuw nsw (i64 ptrtoint (%rtti.CompleteObjectLocator* @"??_R4exception@std@@6B@" to i64), i64 ptrtoint (i8* @__ImageBase to i64)) to i32) }, comdat
@"??_C@_0BC@EOODALEL@Unknown?5exception?$AA@" = linkonce_odr dso_local unnamed_addr constant [18 x i8] c"Unknown exception\00", comdat, align 1
@"??_C@_0BE@LMOOKEAD@Bad?5optional?5access?$AA@" = linkonce_odr dso_local unnamed_addr constant [20 x i8] c"Bad optional access\00", comdat, align 1
@"??_C@_0BA@JFNIOLAK@string?5too?5long?$AA@" = linkonce_odr dso_local unnamed_addr constant [16 x i8] c"string too long\00", comdat, align 1
@"??_R0?AVbad_array_new_length@std@@@8" = linkonce_odr global %rtti.TypeDescriptor30 { i8** @"??_7type_info@@6B@", i8* null, [31 x i8] c".?AVbad_array_new_length@std@@\00" }, comdat
@"_CT??_R0?AVbad_array_new_length@std@@@8??0bad_array_new_length@std@@QEAA@AEBV01@@Z24" = linkonce_odr unnamed_addr constant %eh.CatchableType { i32 0, i32 trunc (i64 sub nuw nsw (i64 ptrtoint (%rtti.TypeDescriptor30* @"??_R0?AVbad_array_new_length@std@@@8" to i64), i64 ptrtoint (i8* @__ImageBase to i64)) to i32), i32 0, i32 -1, i32 0, i32 24, i32 trunc (i64 sub nuw nsw (i64 ptrtoint (%"class.std::bad_array_new_length"* (%"class.std::bad_array_new_length"*, %"class.std::bad_array_new_length"*)* @"??0bad_array_new_length@std@@QEAA@AEBV01@@Z" to i64), i64 ptrtoint (i8* @__ImageBase to i64)) to i32) }, section ".xdata", comdat
@"??_R0?AVbad_alloc@std@@@8" = linkonce_odr global %rtti.TypeDescriptor19 { i8** @"??_7type_info@@6B@", i8* null, [20 x i8] c".?AVbad_alloc@std@@\00" }, comdat
@"_CT??_R0?AVbad_alloc@std@@@8??0bad_alloc@std@@QEAA@AEBV01@@Z24" = linkonce_odr unnamed_addr constant %eh.CatchableType { i32 16, i32 trunc (i64 sub nuw nsw (i64 ptrtoint (%rtti.TypeDescriptor19* @"??_R0?AVbad_alloc@std@@@8" to i64), i64 ptrtoint (i8* @__ImageBase to i64)) to i32), i32 0, i32 -1, i32 0, i32 24, i32 trunc (i64 sub nuw nsw (i64 ptrtoint (%"class.std::bad_alloc"* (%"class.std::bad_alloc"*, %"class.std::bad_alloc"*)* @"??0bad_alloc@std@@QEAA@AEBV01@@Z" to i64), i64 ptrtoint (i8* @__ImageBase to i64)) to i32) }, section ".xdata", comdat
@"_CTA3?AVbad_array_new_length@std@@" = linkonce_odr unnamed_addr constant %eh.CatchableTypeArray.3 { i32 3, [3 x i32] [i32 trunc (i64 sub nuw nsw (i64 ptrtoint (%eh.CatchableType* @"_CT??_R0?AVbad_array_new_length@std@@@8??0bad_array_new_length@std@@QEAA@AEBV01@@Z24" to i64), i64 ptrtoint (i8* @__ImageBase to i64)) to i32), i32 trunc (i64 sub nuw nsw (i64 ptrtoint (%eh.CatchableType* @"_CT??_R0?AVbad_alloc@std@@@8??0bad_alloc@std@@QEAA@AEBV01@@Z24" to i64), i64 ptrtoint (i8* @__ImageBase to i64)) to i32), i32 trunc (i64 sub nuw nsw (i64 ptrtoint (%eh.CatchableType* @"_CT??_R0?AVexception@std@@@8??0exception@std@@QEAA@AEBV01@@Z24" to i64), i64 ptrtoint (i8* @__ImageBase to i64)) to i32)] }, section ".xdata", comdat
@"_TI3?AVbad_array_new_length@std@@" = linkonce_odr unnamed_addr constant %eh.ThrowInfo { i32 0, i32 trunc (i64 sub nuw nsw (i64 ptrtoint (void (%"class.std::bad_array_new_length"*)* @"??1bad_array_new_length@std@@UEAA@XZ" to i64), i64 ptrtoint (i8* @__ImageBase to i64)) to i32), i32 0, i32 trunc (i64 sub nuw nsw (i64 ptrtoint (%eh.CatchableTypeArray.3* @"_CTA3?AVbad_array_new_length@std@@" to i64), i64 ptrtoint (i8* @__ImageBase to i64)) to i32) }, section ".xdata", comdat
@"??_C@_0BF@KINCDENJ@bad?5array?5new?5length?$AA@" = linkonce_odr dso_local unnamed_addr constant [21 x i8] c"bad array new length\00", comdat, align 1
@2 = private unnamed_addr constant { [3 x i8*] } { [3 x i8*] [i8* bitcast (%rtti.CompleteObjectLocator* @"??_R4bad_array_new_length@std@@6B@" to i8*), i8* bitcast (i8* (%"class.std::bad_array_new_length"*, i32)* @"??_Gbad_array_new_length@std@@UEAAPEAXI@Z" to i8*), i8* bitcast (i8* (%"class.std::exception"*)* @"?what@exception@std@@UEBAPEBDXZ" to i8*)] }, comdat($"??_7bad_array_new_length@std@@6B@")
@"??_R4bad_array_new_length@std@@6B@" = linkonce_odr constant %rtti.CompleteObjectLocator { i32 1, i32 0, i32 0, i32 trunc (i64 sub nuw nsw (i64 ptrtoint (%rtti.TypeDescriptor30* @"??_R0?AVbad_array_new_length@std@@@8" to i64), i64 ptrtoint (i8* @__ImageBase to i64)) to i32), i32 trunc (i64 sub nuw nsw (i64 ptrtoint (%rtti.ClassHierarchyDescriptor* @"??_R3bad_array_new_length@std@@8" to i64), i64 ptrtoint (i8* @__ImageBase to i64)) to i32), i32 trunc (i64 sub nuw nsw (i64 ptrtoint (%rtti.CompleteObjectLocator* @"??_R4bad_array_new_length@std@@6B@" to i64), i64 ptrtoint (i8* @__ImageBase to i64)) to i32) }, comdat
@"??_R3bad_array_new_length@std@@8" = linkonce_odr constant %rtti.ClassHierarchyDescriptor { i32 0, i32 0, i32 3, i32 trunc (i64 sub nuw nsw (i64 ptrtoint ([4 x i32]* @"??_R2bad_array_new_length@std@@8" to i64), i64 ptrtoint (i8* @__ImageBase to i64)) to i32) }, comdat
@"??_R2bad_array_new_length@std@@8" = linkonce_odr constant [4 x i32] [i32 trunc (i64 sub nuw nsw (i64 ptrtoint (%rtti.BaseClassDescriptor* @"??_R1A@?0A@EA@bad_array_new_length@std@@8" to i64), i64 ptrtoint (i8* @__ImageBase to i64)) to i32), i32 trunc (i64 sub nuw nsw (i64 ptrtoint (%rtti.BaseClassDescriptor* @"??_R1A@?0A@EA@bad_alloc@std@@8" to i64), i64 ptrtoint (i8* @__ImageBase to i64)) to i32), i32 trunc (i64 sub nuw nsw (i64 ptrtoint (%rtti.BaseClassDescriptor* @"??_R1A@?0A@EA@exception@std@@8" to i64), i64 ptrtoint (i8* @__ImageBase to i64)) to i32), i32 0], comdat
@"??_R1A@?0A@EA@bad_array_new_length@std@@8" = linkonce_odr constant %rtti.BaseClassDescriptor { i32 trunc (i64 sub nuw nsw (i64 ptrtoint (%rtti.TypeDescriptor30* @"??_R0?AVbad_array_new_length@std@@@8" to i64), i64 ptrtoint (i8* @__ImageBase to i64)) to i32), i32 2, i32 0, i32 -1, i32 0, i32 64, i32 trunc (i64 sub nuw nsw (i64 ptrtoint (%rtti.ClassHierarchyDescriptor* @"??_R3bad_array_new_length@std@@8" to i64), i64 ptrtoint (i8* @__ImageBase to i64)) to i32) }, comdat
@"??_R1A@?0A@EA@bad_alloc@std@@8" = linkonce_odr constant %rtti.BaseClassDescriptor { i32 trunc (i64 sub nuw nsw (i64 ptrtoint (%rtti.TypeDescriptor19* @"??_R0?AVbad_alloc@std@@@8" to i64), i64 ptrtoint (i8* @__ImageBase to i64)) to i32), i32 1, i32 0, i32 -1, i32 0, i32 64, i32 trunc (i64 sub nuw nsw (i64 ptrtoint (%rtti.ClassHierarchyDescriptor* @"??_R3bad_alloc@std@@8" to i64), i64 ptrtoint (i8* @__ImageBase to i64)) to i32) }, comdat
@"??_R3bad_alloc@std@@8" = linkonce_odr constant %rtti.ClassHierarchyDescriptor { i32 0, i32 0, i32 2, i32 trunc (i64 sub nuw nsw (i64 ptrtoint ([3 x i32]* @"??_R2bad_alloc@std@@8" to i64), i64 ptrtoint (i8* @__ImageBase to i64)) to i32) }, comdat
@"??_R2bad_alloc@std@@8" = linkonce_odr constant [3 x i32] [i32 trunc (i64 sub nuw nsw (i64 ptrtoint (%rtti.BaseClassDescriptor* @"??_R1A@?0A@EA@bad_alloc@std@@8" to i64), i64 ptrtoint (i8* @__ImageBase to i64)) to i32), i32 trunc (i64 sub nuw nsw (i64 ptrtoint (%rtti.BaseClassDescriptor* @"??_R1A@?0A@EA@exception@std@@8" to i64), i64 ptrtoint (i8* @__ImageBase to i64)) to i32), i32 0], comdat
@3 = private unnamed_addr constant { [3 x i8*] } { [3 x i8*] [i8* bitcast (%rtti.CompleteObjectLocator* @"??_R4bad_alloc@std@@6B@" to i8*), i8* bitcast (i8* (%"class.std::bad_alloc"*, i32)* @"??_Gbad_alloc@std@@UEAAPEAXI@Z" to i8*), i8* bitcast (i8* (%"class.std::exception"*)* @"?what@exception@std@@UEBAPEBDXZ" to i8*)] }, comdat($"??_7bad_alloc@std@@6B@")
@"??_R4bad_alloc@std@@6B@" = linkonce_odr constant %rtti.CompleteObjectLocator { i32 1, i32 0, i32 0, i32 trunc (i64 sub nuw nsw (i64 ptrtoint (%rtti.TypeDescriptor19* @"??_R0?AVbad_alloc@std@@@8" to i64), i64 ptrtoint (i8* @__ImageBase to i64)) to i32), i32 trunc (i64 sub nuw nsw (i64 ptrtoint (%rtti.ClassHierarchyDescriptor* @"??_R3bad_alloc@std@@8" to i64), i64 ptrtoint (i8* @__ImageBase to i64)) to i32), i32 trunc (i64 sub nuw nsw (i64 ptrtoint (%rtti.CompleteObjectLocator* @"??_R4bad_alloc@std@@6B@" to i64), i64 ptrtoint (i8* @__ImageBase to i64)) to i32) }, comdat
@4 = private unnamed_addr constant { [5 x i8*] } { [5 x i8*] [i8* bitcast (%rtti.CompleteObjectLocator* @"??_R4?$_Ref_count_obj2@H@std@@6B@" to i8*), i8* bitcast (void (%"class.std::_Ref_count_obj2"*)* @"?_Destroy@?$_Ref_count_obj2@H@std@@EEAAXXZ" to i8*), i8* bitcast (void (%"class.std::_Ref_count_obj2"*)* @"?_Delete_this@?$_Ref_count_obj2@H@std@@EEAAXXZ" to i8*), i8* bitcast (i8* (%"class.std::_Ref_count_obj2"*, i32)* @"??_G?$_Ref_count_obj2@H@std@@UEAAPEAXI@Z" to i8*), i8* bitcast (i8* (%"class.std::_Ref_count_base"*, %class.type_info*)* @"?_Get_deleter@_Ref_count_base@std@@UEBAPEAXAEBVtype_info@@@Z" to i8*)] }, comdat($"??_7?$_Ref_count_obj2@H@std@@6B@")
@"??_R4?$_Ref_count_obj2@H@std@@6B@" = linkonce_odr constant %rtti.CompleteObjectLocator { i32 1, i32 0, i32 0, i32 trunc (i64 sub nuw nsw (i64 ptrtoint (%rtti.TypeDescriptor29* @"??_R0?AV?$_Ref_count_obj2@H@std@@@8" to i64), i64 ptrtoint (i8* @__ImageBase to i64)) to i32), i32 trunc (i64 sub nuw nsw (i64 ptrtoint (%rtti.ClassHierarchyDescriptor* @"??_R3?$_Ref_count_obj2@H@std@@8" to i64), i64 ptrtoint (i8* @__ImageBase to i64)) to i32), i32 trunc (i64 sub nuw nsw (i64 ptrtoint (%rtti.CompleteObjectLocator* @"??_R4?$_Ref_count_obj2@H@std@@6B@" to i64), i64 ptrtoint (i8* @__ImageBase to i64)) to i32) }, comdat
@"??_R0?AV?$_Ref_count_obj2@H@std@@@8" = linkonce_odr global %rtti.TypeDescriptor29 { i8** @"??_7type_info@@6B@", i8* null, [30 x i8] c".?AV?$_Ref_count_obj2@H@std@@\00" }, comdat
@"??_R3?$_Ref_count_obj2@H@std@@8" = linkonce_odr constant %rtti.ClassHierarchyDescriptor { i32 0, i32 0, i32 2, i32 trunc (i64 sub nuw nsw (i64 ptrtoint ([3 x i32]* @"??_R2?$_Ref_count_obj2@H@std@@8" to i64), i64 ptrtoint (i8* @__ImageBase to i64)) to i32) }, comdat
@"??_R2?$_Ref_count_obj2@H@std@@8" = linkonce_odr constant [3 x i32] [i32 trunc (i64 sub nuw nsw (i64 ptrtoint (%rtti.BaseClassDescriptor* @"??_R1A@?0A@EA@?$_Ref_count_obj2@H@std@@8" to i64), i64 ptrtoint (i8* @__ImageBase to i64)) to i32), i32 trunc (i64 sub nuw nsw (i64 ptrtoint (%rtti.BaseClassDescriptor* @"??_R1A@?0A@EA@_Ref_count_base@std@@8" to i64), i64 ptrtoint (i8* @__ImageBase to i64)) to i32), i32 0], comdat
@"??_R1A@?0A@EA@?$_Ref_count_obj2@H@std@@8" = linkonce_odr constant %rtti.BaseClassDescriptor { i32 trunc (i64 sub nuw nsw (i64 ptrtoint (%rtti.TypeDescriptor29* @"??_R0?AV?$_Ref_count_obj2@H@std@@@8" to i64), i64 ptrtoint (i8* @__ImageBase to i64)) to i32), i32 1, i32 0, i32 -1, i32 0, i32 64, i32 trunc (i64 sub nuw nsw (i64 ptrtoint (%rtti.ClassHierarchyDescriptor* @"??_R3?$_Ref_count_obj2@H@std@@8" to i64), i64 ptrtoint (i8* @__ImageBase to i64)) to i32) }, comdat
@"??_R1A@?0A@EA@_Ref_count_base@std@@8" = linkonce_odr constant %rtti.BaseClassDescriptor { i32 trunc (i64 sub nuw nsw (i64 ptrtoint (%rtti.TypeDescriptor25* @"??_R0?AV_Ref_count_base@std@@@8" to i64), i64 ptrtoint (i8* @__ImageBase to i64)) to i32), i32 0, i32 0, i32 -1, i32 0, i32 64, i32 trunc (i64 sub nuw nsw (i64 ptrtoint (%rtti.ClassHierarchyDescriptor* @"??_R3_Ref_count_base@std@@8" to i64), i64 ptrtoint (i8* @__ImageBase to i64)) to i32) }, comdat
@"??_R0?AV_Ref_count_base@std@@@8" = linkonce_odr global %rtti.TypeDescriptor25 { i8** @"??_7type_info@@6B@", i8* null, [26 x i8] c".?AV_Ref_count_base@std@@\00" }, comdat
@"??_R3_Ref_count_base@std@@8" = linkonce_odr constant %rtti.ClassHierarchyDescriptor { i32 0, i32 0, i32 1, i32 trunc (i64 sub nuw nsw (i64 ptrtoint ([2 x i32]* @"??_R2_Ref_count_base@std@@8" to i64), i64 ptrtoint (i8* @__ImageBase to i64)) to i32) }, comdat
@"??_R2_Ref_count_base@std@@8" = linkonce_odr constant [2 x i32] [i32 trunc (i64 sub nuw nsw (i64 ptrtoint (%rtti.BaseClassDescriptor* @"??_R1A@?0A@EA@_Ref_count_base@std@@8" to i64), i64 ptrtoint (i8* @__ImageBase to i64)) to i32), i32 0], comdat
@5 = private unnamed_addr constant { [5 x i8*] } { [5 x i8*] [i8* bitcast (%rtti.CompleteObjectLocator* @"??_R4_Ref_count_base@std@@6B@" to i8*), i8* bitcast (void ()* @_purecall to i8*), i8* bitcast (void ()* @_purecall to i8*), i8* bitcast (i8* (%"class.std::_Ref_count_base"*, i32)* @"??_G_Ref_count_base@std@@UEAAPEAXI@Z" to i8*), i8* bitcast (i8* (%"class.std::_Ref_count_base"*, %class.type_info*)* @"?_Get_deleter@_Ref_count_base@std@@UEBAPEAXAEBVtype_info@@@Z" to i8*)] }, comdat($"??_7_Ref_count_base@std@@6B@")
@"??_R4_Ref_count_base@std@@6B@" = linkonce_odr constant %rtti.CompleteObjectLocator { i32 1, i32 0, i32 0, i32 trunc (i64 sub nuw nsw (i64 ptrtoint (%rtti.TypeDescriptor25* @"??_R0?AV_Ref_count_base@std@@@8" to i64), i64 ptrtoint (i8* @__ImageBase to i64)) to i32), i32 trunc (i64 sub nuw nsw (i64 ptrtoint (%rtti.ClassHierarchyDescriptor* @"??_R3_Ref_count_base@std@@8" to i64), i64 ptrtoint (i8* @__ImageBase to i64)) to i32), i32 trunc (i64 sub nuw nsw (i64 ptrtoint (%rtti.CompleteObjectLocator* @"??_R4_Ref_count_base@std@@6B@" to i64), i64 ptrtoint (i8* @__ImageBase to i64)) to i32) }, comdat

@"??_7bad_optional_access@std@@6B@" = unnamed_addr alias i8*, getelementptr inbounds ({ [3 x i8*] }, { [3 x i8*] }* @0, i32 0, i32 0, i32 1)
@"??_7exception@std@@6B@" = unnamed_addr alias i8*, getelementptr inbounds ({ [3 x i8*] }, { [3 x i8*] }* @1, i32 0, i32 0, i32 1)
@"??_7bad_array_new_length@std@@6B@" = unnamed_addr alias i8*, getelementptr inbounds ({ [3 x i8*] }, { [3 x i8*] }* @2, i32 0, i32 0, i32 1)
@"??_7bad_alloc@std@@6B@" = unnamed_addr alias i8*, getelementptr inbounds ({ [3 x i8*] }, { [3 x i8*] }* @3, i32 0, i32 0, i32 1)
@"??_7?$_Ref_count_obj2@H@std@@6B@" = unnamed_addr alias i8*, getelementptr inbounds ({ [5 x i8*] }, { [5 x i8*] }* @4, i32 0, i32 0, i32 1)
@"??_7_Ref_count_base@std@@6B@" = unnamed_addr alias i8*, getelementptr inbounds ({ [5 x i8*] }, { [5 x i8*] }* @5, i32 0, i32 0, i32 1)

; Function Attrs: noinline optnone uwtable
define dso_local void @"?retFunc@@YA?AV?$unique_ptr@VClassWithDestructor@@U?$default_delete@VClassWithDestructor@@@std@@@std@@XZ"(%"class.std::unique_ptr"* noalias sret align 8 %0) #0 !dbg !2069 {
  %2 = alloca i8*, align 8
  %3 = bitcast %"class.std::unique_ptr"* %0 to i8*
  store i8* %3, i8** %2, align 8
  %4 = call %"class.std::unique_ptr"* @"??$?0U?$default_delete@VClassWithDestructor@@@std@@$0A@@?$unique_ptr@VClassWithDestructor@@U?$default_delete@VClassWithDestructor@@@std@@@std@@QEAA@XZ"(%"class.std::unique_ptr"* %0) #5, !dbg !2188
  ret void, !dbg !2189
}

; Function Attrs: noinline nounwind optnone uwtable
define linkonce_odr dso_local %"class.std::unique_ptr"* @"??$?0U?$default_delete@VClassWithDestructor@@@std@@$0A@@?$unique_ptr@VClassWithDestructor@@U?$default_delete@VClassWithDestructor@@@std@@@std@@QEAA@XZ"(%"class.std::unique_ptr"* returned %0) unnamed_addr #1 comdat align 2 !dbg !2190 {
  %2 = alloca %"class.std::unique_ptr"*, align 8
  %3 = alloca %"struct.std::_Zero_then_variadic_args_t", align 1
  store %"class.std::unique_ptr"* %0, %"class.std::unique_ptr"** %2, align 8
  call void @llvm.dbg.declare(metadata %"class.std::unique_ptr"** %2, metadata !2195, metadata !DIExpression()), !dbg !2197
  %4 = load %"class.std::unique_ptr"*, %"class.std::unique_ptr"** %2, align 8
  %5 = getelementptr inbounds %"class.std::unique_ptr", %"class.std::unique_ptr"* %4, i32 0, i32 0, !dbg !2198
  %6 = getelementptr inbounds %"struct.std::_Zero_then_variadic_args_t", %"struct.std::_Zero_then_variadic_args_t"* %3, i32 0, i32 0, !dbg !2198
  %7 = load i8, i8* %6, align 1, !dbg !2198
  %8 = call %"class.std::_Compressed_pair"* @"??$?0$$V@?$_Compressed_pair@U?$default_delete@VClassWithDestructor@@@std@@PEAVClassWithDestructor@@$00@std@@QEAA@U_Zero_then_variadic_args_t@1@@Z"(%"class.std::_Compressed_pair"* %5, i8 %7) #5, !dbg !2198
  ret %"class.std::unique_ptr"* %4, !dbg !2199
}

; Function Attrs: noinline optnone uwtable
define dso_local void @"?returnOptional@expression@test@@YA?AV?$optional@H@std@@XZ"(%"class.std::optional"* noalias sret align 4 %0) #0 !dbg !2200 {
  %2 = alloca i8*, align 8
  %3 = alloca i32, align 4
  %4 = bitcast %"class.std::optional"* %0 to i8*
  store i8* %4, i8** %2, align 8
  store i32 6, i32* %3, align 4, !dbg !2203
  %5 = call %"class.std::optional"* @"??$?0H$0A@@?$optional@H@std@@QEAA@$$QEAH@Z"(%"class.std::optional"* %0, i32* nonnull align 4 dereferenceable(4) %3), !dbg !2204
  ret void, !dbg !2205
}

; Function Attrs: noinline optnone uwtable
define linkonce_odr dso_local %"class.std::optional"* @"??$?0H$0A@@?$optional@H@std@@QEAA@$$QEAH@Z"(%"class.std::optional"* returned %0, i32* nonnull align 4 dereferenceable(4) %1) unnamed_addr #0 comdat align 2 !dbg !2206 {
  %3 = alloca i32*, align 8
  %4 = alloca %"class.std::optional"*, align 8
  %5 = alloca %"struct.std::in_place_t", align 1
  store i32* %1, i32** %3, align 8
  call void @llvm.dbg.declare(metadata i32** %3, metadata !2212, metadata !DIExpression()), !dbg !2213
  store %"class.std::optional"* %0, %"class.std::optional"** %4, align 8
  call void @llvm.dbg.declare(metadata %"class.std::optional"** %4, metadata !2214, metadata !DIExpression()), !dbg !2216
  %6 = load %"class.std::optional"*, %"class.std::optional"** %4, align 8
  %7 = bitcast %"class.std::optional"* %6 to %"struct.std::_Optional_construct_base"*, !dbg !2217
  %8 = load i32*, i32** %3, align 8, !dbg !2218
  %9 = call nonnull align 4 dereferenceable(4) i32* @"??$forward@H@std@@YA$$QEAHAEAH@Z"(i32* nonnull align 4 dereferenceable(4) %8) #5, !dbg !2219
  %10 = getelementptr inbounds %"struct.std::in_place_t", %"struct.std::in_place_t"* %5, i32 0, i32 0, !dbg !2220
  %11 = load i8, i8* %10, align 1, !dbg !2220
  %12 = call %"struct.std::_Optional_construct_base"* @"??0?$_Optional_construct_base@H@std@@QEAA@Uin_place_t@1@$$QEAH@Z"(%"struct.std::_Optional_construct_base"* %7, i8 %11, i32* nonnull align 4 dereferenceable(4) %9), !dbg !2220
  ret %"class.std::optional"* %6, !dbg !2221
}

; Function Attrs: noinline optnone uwtable
define dso_local dllexport void @"?optionalObjectTest@expression@test@@YAXXZ"() #0 personality i8* bitcast (i32 (...)* @__CxxFrameHandler3 to i8*) !dbg !2222 {
  %1 = alloca %"class.std::optional", align 4
  %2 = alloca %"class.std::optional", align 4
  %3 = alloca i32, align 4
  %4 = alloca %"class.std::basic_string", align 8
  %5 = alloca %"class.std::basic_string", align 8
  %6 = alloca %"class.std::basic_string", align 8
  %7 = alloca %"class.std::basic_string", align 8
  %8 = alloca %"class.std::basic_string", align 8
  %9 = alloca %"class.std::optional", align 4
  %10 = alloca %"class.std::basic_string", align 8
  %11 = alloca %"class.std::basic_string", align 8
  %12 = alloca %"class.std::basic_string", align 8
  %13 = alloca %"class.std::basic_string", align 8
  %14 = alloca %"class.std::basic_string", align 8
  call void @llvm.dbg.declare(metadata %"class.std::optional"* %1, metadata !2223, metadata !DIExpression()), !dbg !2224
  call void @"?returnOptional@expression@test@@YA?AV?$optional@H@std@@XZ"(%"class.std::optional"* sret align 4 %1), !dbg !2225
  store i32 5, i32* %3, align 4, !dbg !2226
  %15 = call %"class.std::optional"* @"??$?0H$0A@@?$optional@H@std@@QEAA@$$QEAH@Z"(%"class.std::optional"* %2, i32* nonnull align 4 dereferenceable(4) %3), !dbg !2226
  %16 = bitcast %"class.std::optional"* %1 to i8*, !dbg !2227
  %17 = bitcast %"class.std::optional"* %2 to i8*, !dbg !2227
  call void @llvm.memcpy.p0i8.p0i8.i64(i8* align 4 %16, i8* align 4 %17, i64 8, i1 false), !dbg !2227
  %18 = call nonnull align 4 dereferenceable(4) i32* @"?value@?$optional@H@std@@QEGAAAEAHXZ"(%"class.std::optional"* %1), !dbg !2228
  call void @llvm.dbg.declare(metadata %"class.std::basic_string"* %4, metadata !2229, metadata !DIExpression()), !dbg !2230
  %19 = call %"class.std::basic_string"* @"??0?$basic_string@DU?$char_traits@D@std@@V?$allocator@D@2@@std@@QEAA@QEBD@Z"(%"class.std::basic_string"* %4, i8* getelementptr inbounds ([206 x i8], [206 x i8]* @"??_C@_0MO@PNCLFKFH@a?$DN5?$DLstd?3?3optional?$DMint?$DO?5m?5?$DN?5a?$DLFAI@", i64 0, i64 0)), !dbg !2231
  invoke void @llvm.eha.scope.begin()
          to label %20 unwind label %94, !dbg !2232

20:                                               ; preds = %0
  %21 = invoke %"class.std::basic_string"* @"??0?$basic_string@DU?$char_traits@D@std@@V?$allocator@D@2@@std@@QEAA@AEBV01@@Z"(%"class.std::basic_string"* %7, %"class.std::basic_string"* nonnull align 8 dereferenceable(32) %4)
          to label %22 unwind label %94, !dbg !2233

22:                                               ; preds = %20
  invoke void @llvm.eha.scope.begin()
          to label %23 unwind label %46, !dbg !2233

23:                                               ; preds = %22
  %24 = invoke %"class.std::basic_string"* @"??0?$basic_string@DU?$char_traits@D@std@@V?$allocator@D@2@@std@@QEAA@QEBD@Z"(%"class.std::basic_string"* %8, i8* getelementptr inbounds ([94 x i8], [94 x i8]* @"??_C@_0FO@BMCOEJHP@?7?$CDdefine?5FAIL_TEST_IF_FALSE?$CIcond@", i64 0, i64 0))
          to label %25 unwind label %46, !dbg !2233

25:                                               ; preds = %23
  invoke void @llvm.eha.scope.begin()
          to label %26 unwind label %44, !dbg !2233

26:                                               ; preds = %25
  invoke void @"??$?HDU?$char_traits@D@std@@V?$allocator@D@1@@std@@YA?AV?$basic_string@DU?$char_traits@D@std@@V?$allocator@D@2@@0@$$QEAV10@0@Z"(%"class.std::basic_string"* sret align 8 %6, %"class.std::basic_string"* nonnull align 8 dereferenceable(32) %8, %"class.std::basic_string"* nonnull align 8 dereferenceable(32) %7)
          to label %27 unwind label %44, !dbg !2233

27:                                               ; preds = %26
  invoke void @llvm.eha.scope.begin()
          to label %28 unwind label %42, !dbg !2233

28:                                               ; preds = %27
  invoke void @"??$?HDU?$char_traits@D@std@@V?$allocator@D@1@@std@@YA?AV?$basic_string@DU?$char_traits@D@std@@V?$allocator@D@2@@0@$$QEAV10@QEBD@Z"(%"class.std::basic_string"* sret align 8 %5, %"class.std::basic_string"* nonnull align 8 dereferenceable(32) %6, i8* getelementptr inbounds ([31 x i8], [31 x i8]* @"??_C@_0BP@FJINOLPO@?$DLg_shouldPauseExecute?5?$DN?5false?$DL?$AA@", i64 0, i64 0))
          to label %29 unwind label %42, !dbg !2233

29:                                               ; preds = %28
  invoke void @llvm.eha.scope.begin()
          to label %30 unwind label %40, !dbg !2233

30:                                               ; preds = %29
  %31 = call nonnull align 8 dereferenceable(32) %"class.std::basic_string"* @"??4?$basic_string@DU?$char_traits@D@std@@V?$allocator@D@2@@std@@QEAAAEAV01@$$QEAV01@@Z"(%"class.std::basic_string"* @"?g_expr@@3V?$basic_string@DU?$char_traits@D@std@@V?$allocator@D@2@@std@@A", %"class.std::basic_string"* nonnull align 8 dereferenceable(32) %5) #5, !dbg !2233
  invoke void @llvm.eha.scope.end()
          to label %32 unwind label %40, !dbg !2233

32:                                               ; preds = %30
  call void @"??1?$basic_string@DU?$char_traits@D@std@@V?$allocator@D@2@@std@@QEAA@XZ"(%"class.std::basic_string"* %5) #5, !dbg !2233
  invoke void @llvm.eha.scope.end()
          to label %33 unwind label %42, !dbg !2233

33:                                               ; preds = %32
  call void @"??1?$basic_string@DU?$char_traits@D@std@@V?$allocator@D@2@@std@@QEAA@XZ"(%"class.std::basic_string"* %6) #5, !dbg !2233
  invoke void @llvm.eha.scope.end()
          to label %34 unwind label %44, !dbg !2233

34:                                               ; preds = %33
  call void @"??1?$basic_string@DU?$char_traits@D@std@@V?$allocator@D@2@@std@@QEAA@XZ"(%"class.std::basic_string"* %8) #5, !dbg !2233
  invoke void @llvm.eha.scope.end()
          to label %35 unwind label %46, !dbg !2233

35:                                               ; preds = %34
  call void @"??1?$basic_string@DU?$char_traits@D@std@@V?$allocator@D@2@@std@@QEAA@XZ"(%"class.std::basic_string"* %7) #5, !dbg !2233
  store i8 1, i8* @"?g_shouldPauseExecute@@3_NA", align 1, !dbg !2233
  store i8 1, i8* @"?g_notifyBp@@3_NA", align 1, !dbg !2233
  br label %36, !dbg !2233

36:                                               ; preds = %39, %35
  %37 = load i8, i8* @"?g_shouldPauseExecute@@3_NA", align 1, !dbg !2233
  %38 = trunc i8 %37 to i1, !dbg !2233
  br i1 %38, label %39, label %48, !dbg !2233

39:                                               ; preds = %36
  br label %36, !dbg !2233, !llvm.loop !2234

40:                                               ; preds = %30, %29
  %41 = cleanuppad within none [], !dbg !2233
  call void @"??1?$basic_string@DU?$char_traits@D@std@@V?$allocator@D@2@@std@@QEAA@XZ"(%"class.std::basic_string"* %5) #5 [ "funclet"(token %41) ], !dbg !2233
  cleanupret from %41 unwind label %42, !dbg !2233

42:                                               ; preds = %32, %40, %28, %27
  %43 = cleanuppad within none [], !dbg !2233
  call void @"??1?$basic_string@DU?$char_traits@D@std@@V?$allocator@D@2@@std@@QEAA@XZ"(%"class.std::basic_string"* %6) #5 [ "funclet"(token %43) ], !dbg !2233
  cleanupret from %43 unwind label %44, !dbg !2233

44:                                               ; preds = %33, %42, %26, %25
  %45 = cleanuppad within none [], !dbg !2233
  call void @"??1?$basic_string@DU?$char_traits@D@std@@V?$allocator@D@2@@std@@QEAA@XZ"(%"class.std::basic_string"* %8) #5 [ "funclet"(token %45) ], !dbg !2233
  cleanupret from %45 unwind label %46, !dbg !2233

46:                                               ; preds = %34, %44, %23, %22
  %47 = cleanuppad within none [], !dbg !2233
  call void @"??1?$basic_string@DU?$char_traits@D@std@@V?$allocator@D@2@@std@@QEAA@XZ"(%"class.std::basic_string"* %7) #5 [ "funclet"(token %47) ], !dbg !2233
  cleanupret from %47 unwind label %94, !dbg !2233

48:                                               ; preds = %36
  invoke void @"?returnOptional@expression@test@@YA?AV?$optional@H@std@@XZ"(%"class.std::optional"* sret align 4 %9)
          to label %49 unwind label %94, !dbg !2235

49:                                               ; preds = %48
  %50 = invoke zeroext i1 @"??$?8HH@std@@YA_NAEBV?$optional@H@0@0@Z"(%"class.std::optional"* nonnull align 4 dereferenceable(8) %1, %"class.std::optional"* nonnull align 4 dereferenceable(8) %9)
          to label %51 unwind label %94, !dbg !2235

51:                                               ; preds = %49
  %52 = xor i1 %50, true, !dbg !2235
  br i1 %52, label %53, label %54, !dbg !2237

53:                                               ; preds = %51
  call void @llvm.debugtrap(), !dbg !2238
  br label %54, !dbg !2238

54:                                               ; preds = %53, %51
  call void @llvm.dbg.declare(metadata %"class.std::basic_string"* %10, metadata !2240, metadata !DIExpression()), !dbg !2241
  %55 = invoke %"class.std::basic_string"* @"??0?$basic_string@DU?$char_traits@D@std@@V?$allocator@D@2@@std@@QEAA@QEBD@Z"(%"class.std::basic_string"* %10, i8* getelementptr inbounds ([69 x i8], [69 x i8]* @"??_C@_0EF@GDILOBLA@std?3?3optional?$DMClassWithDestructo@", i64 0, i64 0))
          to label %56 unwind label %94, !dbg !2242

56:                                               ; preds = %54
  invoke void @llvm.eha.scope.begin()
          to label %57 unwind label %92, !dbg !2243

57:                                               ; preds = %56
  %58 = invoke %"class.std::basic_string"* @"??0?$basic_string@DU?$char_traits@D@std@@V?$allocator@D@2@@std@@QEAA@AEBV01@@Z"(%"class.std::basic_string"* %13, %"class.std::basic_string"* nonnull align 8 dereferenceable(32) %10)
          to label %59 unwind label %92, !dbg !2244

59:                                               ; preds = %57
  invoke void @llvm.eha.scope.begin()
          to label %60 unwind label %83, !dbg !2244

60:                                               ; preds = %59
  %61 = invoke %"class.std::basic_string"* @"??0?$basic_string@DU?$char_traits@D@std@@V?$allocator@D@2@@std@@QEAA@QEBD@Z"(%"class.std::basic_string"* %14, i8* getelementptr inbounds ([94 x i8], [94 x i8]* @"??_C@_0FO@BMCOEJHP@?7?$CDdefine?5FAIL_TEST_IF_FALSE?$CIcond@", i64 0, i64 0))
          to label %62 unwind label %83, !dbg !2244

62:                                               ; preds = %60
  invoke void @llvm.eha.scope.begin()
          to label %63 unwind label %81, !dbg !2244

63:                                               ; preds = %62
  invoke void @"??$?HDU?$char_traits@D@std@@V?$allocator@D@1@@std@@YA?AV?$basic_string@DU?$char_traits@D@std@@V?$allocator@D@2@@0@$$QEAV10@0@Z"(%"class.std::basic_string"* sret align 8 %12, %"class.std::basic_string"* nonnull align 8 dereferenceable(32) %14, %"class.std::basic_string"* nonnull align 8 dereferenceable(32) %13)
          to label %64 unwind label %81, !dbg !2244

64:                                               ; preds = %63
  invoke void @llvm.eha.scope.begin()
          to label %65 unwind label %79, !dbg !2244

65:                                               ; preds = %64
  invoke void @"??$?HDU?$char_traits@D@std@@V?$allocator@D@1@@std@@YA?AV?$basic_string@DU?$char_traits@D@std@@V?$allocator@D@2@@0@$$QEAV10@QEBD@Z"(%"class.std::basic_string"* sret align 8 %11, %"class.std::basic_string"* nonnull align 8 dereferenceable(32) %12, i8* getelementptr inbounds ([31 x i8], [31 x i8]* @"??_C@_0BP@FJINOLPO@?$DLg_shouldPauseExecute?5?$DN?5false?$DL?$AA@", i64 0, i64 0))
          to label %66 unwind label %79, !dbg !2244

66:                                               ; preds = %65
  invoke void @llvm.eha.scope.begin()
          to label %67 unwind label %77, !dbg !2244

67:                                               ; preds = %66
  %68 = call nonnull align 8 dereferenceable(32) %"class.std::basic_string"* @"??4?$basic_string@DU?$char_traits@D@std@@V?$allocator@D@2@@std@@QEAAAEAV01@$$QEAV01@@Z"(%"class.std::basic_string"* @"?g_expr@@3V?$basic_string@DU?$char_traits@D@std@@V?$allocator@D@2@@std@@A", %"class.std::basic_string"* nonnull align 8 dereferenceable(32) %11) #5, !dbg !2244
  invoke void @llvm.eha.scope.end()
          to label %69 unwind label %77, !dbg !2244

69:                                               ; preds = %67
  call void @"??1?$basic_string@DU?$char_traits@D@std@@V?$allocator@D@2@@std@@QEAA@XZ"(%"class.std::basic_string"* %11) #5, !dbg !2244
  invoke void @llvm.eha.scope.end()
          to label %70 unwind label %79, !dbg !2244

70:                                               ; preds = %69
  call void @"??1?$basic_string@DU?$char_traits@D@std@@V?$allocator@D@2@@std@@QEAA@XZ"(%"class.std::basic_string"* %12) #5, !dbg !2244
  invoke void @llvm.eha.scope.end()
          to label %71 unwind label %81, !dbg !2244

71:                                               ; preds = %70
  call void @"??1?$basic_string@DU?$char_traits@D@std@@V?$allocator@D@2@@std@@QEAA@XZ"(%"class.std::basic_string"* %14) #5, !dbg !2244
  invoke void @llvm.eha.scope.end()
          to label %72 unwind label %83, !dbg !2244

72:                                               ; preds = %71
  call void @"??1?$basic_string@DU?$char_traits@D@std@@V?$allocator@D@2@@std@@QEAA@XZ"(%"class.std::basic_string"* %13) #5, !dbg !2244
  store i8 1, i8* @"?g_shouldPauseExecute@@3_NA", align 1, !dbg !2244
  store i8 1, i8* @"?g_notifyBp@@3_NA", align 1, !dbg !2244
  br label %73, !dbg !2244

73:                                               ; preds = %76, %72
  %74 = load i8, i8* @"?g_shouldPauseExecute@@3_NA", align 1, !dbg !2244
  %75 = trunc i8 %74 to i1, !dbg !2244
  br i1 %75, label %76, label %85, !dbg !2244

76:                                               ; preds = %73
  br label %73, !dbg !2244, !llvm.loop !2245

77:                                               ; preds = %67, %66
  %78 = cleanuppad within none [], !dbg !2244
  call void @"??1?$basic_string@DU?$char_traits@D@std@@V?$allocator@D@2@@std@@QEAA@XZ"(%"class.std::basic_string"* %11) #5 [ "funclet"(token %78) ], !dbg !2244
  cleanupret from %78 unwind label %79, !dbg !2244

79:                                               ; preds = %69, %77, %65, %64
  %80 = cleanuppad within none [], !dbg !2244
  call void @"??1?$basic_string@DU?$char_traits@D@std@@V?$allocator@D@2@@std@@QEAA@XZ"(%"class.std::basic_string"* %12) #5 [ "funclet"(token %80) ], !dbg !2244
  cleanupret from %80 unwind label %81, !dbg !2244

81:                                               ; preds = %70, %79, %63, %62
  %82 = cleanuppad within none [], !dbg !2244
  call void @"??1?$basic_string@DU?$char_traits@D@std@@V?$allocator@D@2@@std@@QEAA@XZ"(%"class.std::basic_string"* %14) #5 [ "funclet"(token %82) ], !dbg !2244
  cleanupret from %82 unwind label %83, !dbg !2244

83:                                               ; preds = %71, %81, %60, %59
  %84 = cleanuppad within none [], !dbg !2244
  call void @"??1?$basic_string@DU?$char_traits@D@std@@V?$allocator@D@2@@std@@QEAA@XZ"(%"class.std::basic_string"* %13) #5 [ "funclet"(token %84) ], !dbg !2244
  cleanupret from %84 unwind label %92, !dbg !2244

85:                                               ; preds = %73
  %86 = load i32, i32* @"?g_counter@expression@test@@3HA", align 4, !dbg !2246
  %87 = icmp ne i32 %86, 0, !dbg !2246
  br i1 %87, label %89, label %88, !dbg !2248

88:                                               ; preds = %85
  call void @llvm.debugtrap(), !dbg !2249
  br label %89, !dbg !2249

89:                                               ; preds = %88, %85
  invoke void @llvm.eha.scope.end()
          to label %90 unwind label %92, !dbg !2251

90:                                               ; preds = %89
  call void @"??1?$basic_string@DU?$char_traits@D@std@@V?$allocator@D@2@@std@@QEAA@XZ"(%"class.std::basic_string"* %10) #5, !dbg !2251
  invoke void @llvm.eha.scope.end()
          to label %91 unwind label %94, !dbg !2251

91:                                               ; preds = %90
  call void @"??1?$basic_string@DU?$char_traits@D@std@@V?$allocator@D@2@@std@@QEAA@XZ"(%"class.std::basic_string"* %4) #5, !dbg !2251
  ret void, !dbg !2251

92:                                               ; preds = %89, %83, %57, %56
  %93 = cleanuppad within none [], !dbg !2251
  call void @"??1?$basic_string@DU?$char_traits@D@std@@V?$allocator@D@2@@std@@QEAA@XZ"(%"class.std::basic_string"* %10) #5 [ "funclet"(token %93) ], !dbg !2251
  cleanupret from %93 unwind label %94, !dbg !2251

94:                                               ; preds = %90, %92, %54, %49, %48, %46, %20, %0
  %95 = cleanuppad within none [], !dbg !2251
  call void @"??1?$basic_string@DU?$char_traits@D@std@@V?$allocator@D@2@@std@@QEAA@XZ"(%"class.std::basic_string"* %4) #5 [ "funclet"(token %95) ], !dbg !2251
  cleanupret from %95 unwind to caller, !dbg !2251
}

; Function Attrs: nounwind readnone speculatable willreturn
declare void @llvm.dbg.declare(metadata, metadata, metadata) #2

; Function Attrs: argmemonly nounwind willreturn
declare void @llvm.memcpy.p0i8.p0i8.i64(i8* noalias nocapture writeonly, i8* noalias nocapture readonly, i64, i1 immarg) #3

; Function Attrs: noinline optnone uwtable
define linkonce_odr dso_local nonnull align 4 dereferenceable(4) i32* @"?value@?$optional@H@std@@QEGAAAEAHXZ"(%"class.std::optional"* %0) #0 comdat align 2 !dbg !2252 {
  %2 = alloca %"class.std::optional"*, align 8
  store %"class.std::optional"* %0, %"class.std::optional"** %2, align 8
  call void @llvm.dbg.declare(metadata %"class.std::optional"** %2, metadata !2253, metadata !DIExpression()), !dbg !2254
  %3 = load %"class.std::optional"*, %"class.std::optional"** %2, align 8
  %4 = bitcast %"class.std::optional"* %3 to %"struct.std::_Optional_destruct_base"*, !dbg !2255
  %5 = getelementptr inbounds %"struct.std::_Optional_destruct_base", %"struct.std::_Optional_destruct_base"* %4, i32 0, i32 1, !dbg !2255
  %6 = load i8, i8* %5, align 4, !dbg !2255
  %7 = trunc i8 %6 to i1, !dbg !2255
  br i1 %7, label %9, label %8, !dbg !2257

8:                                                ; preds = %1
  call void @"?_Throw_bad_optional_access@std@@YAXXZ"() #15, !dbg !2258
  unreachable, !dbg !2258

9:                                                ; preds = %1
  %10 = bitcast %"class.std::optional"* %3 to %"struct.std::_Optional_destruct_base"*, !dbg !2260
  %11 = getelementptr inbounds %"struct.std::_Optional_destruct_base", %"struct.std::_Optional_destruct_base"* %10, i32 0, i32 0, !dbg !2260
  %12 = bitcast %union.anon* %11 to i32*, !dbg !2260
  ret i32* %12, !dbg !2261
}

; Function Attrs: noinline optnone uwtable
define linkonce_odr dso_local %"class.std::basic_string"* @"??0?$basic_string@DU?$char_traits@D@std@@V?$allocator@D@2@@std@@QEAA@QEBD@Z"(%"class.std::basic_string"* returned %0, i8* %1) unnamed_addr #0 comdat align 2 personality i8* bitcast (i32 (...)* @__CxxFrameHandler3 to i8*) !dbg !2262 {
  %3 = alloca i8*, align 8
  %4 = alloca %"class.std::basic_string"*, align 8
  %5 = alloca %"struct.std::_Zero_then_variadic_args_t", align 1
  %6 = alloca %"struct.std::_Fake_allocator"*, align 8
  %7 = alloca %"struct.std::_Fake_allocator", align 1
  %8 = alloca %"struct.std::_Fake_proxy_ptr_impl", align 1
  store i8* %1, i8** %3, align 8
  call void @llvm.dbg.declare(metadata i8** %3, metadata !2263, metadata !DIExpression()), !dbg !2264
  store %"class.std::basic_string"* %0, %"class.std::basic_string"** %4, align 8
  call void @llvm.dbg.declare(metadata %"class.std::basic_string"** %4, metadata !2265, metadata !DIExpression()), !dbg !2267
  %9 = load %"class.std::basic_string"*, %"class.std::basic_string"** %4, align 8
  %10 = getelementptr inbounds %"class.std::basic_string", %"class.std::basic_string"* %9, i32 0, i32 0, !dbg !2268
  %11 = getelementptr inbounds %"struct.std::_Zero_then_variadic_args_t", %"struct.std::_Zero_then_variadic_args_t"* %5, i32 0, i32 0, !dbg !2268
  %12 = load i8, i8* %11, align 1, !dbg !2268
  %13 = call %"class.std::_Compressed_pair.0"* @"??$?0$$V@?$_Compressed_pair@V?$allocator@D@std@@V?$_String_val@U?$_Simple_types@D@std@@@2@$00@std@@QEAA@U_Zero_then_variadic_args_t@1@@Z"(%"class.std::_Compressed_pair.0"* %10, i8 %12), !dbg !2268
  invoke void @llvm.eha.scope.begin()
          to label %14 unwind label %23, !dbg !2268

14:                                               ; preds = %2
  call void @llvm.dbg.declare(metadata %"struct.std::_Fake_allocator"** %6, metadata !2269, metadata !DIExpression()), !dbg !2272
  store %"struct.std::_Fake_allocator"* %7, %"struct.std::_Fake_allocator"** %6, align 8, !dbg !2272
  call void @llvm.dbg.declare(metadata %"struct.std::_Fake_proxy_ptr_impl"* %8, metadata !2273, metadata !DIExpression()), !dbg !2308
  %15 = getelementptr inbounds %"class.std::basic_string", %"class.std::basic_string"* %9, i32 0, i32 0, !dbg !2309
  %16 = getelementptr inbounds %"class.std::_Compressed_pair.0", %"class.std::_Compressed_pair.0"* %15, i32 0, i32 0, !dbg !2310
  %17 = bitcast %"class.std::_String_val"* %16 to %"struct.std::_Container_base0"*, !dbg !2309
  %18 = load %"struct.std::_Fake_allocator"*, %"struct.std::_Fake_allocator"** %6, align 8, !dbg !2311
  %19 = call %"struct.std::_Fake_proxy_ptr_impl"* @"??0_Fake_proxy_ptr_impl@std@@QEAA@AEBU_Fake_allocator@1@AEBU_Container_base0@1@@Z"(%"struct.std::_Fake_proxy_ptr_impl"* %8, %"struct.std::_Fake_allocator"* nonnull align 1 dereferenceable(1) %18, %"struct.std::_Container_base0"* nonnull align 1 dereferenceable(1) %17) #5, !dbg !2308
  call void @"?_Tidy_init@?$basic_string@DU?$char_traits@D@std@@V?$allocator@D@2@@std@@AEAAXXZ"(%"class.std::basic_string"* %9) #5, !dbg !2312
  %20 = load i8*, i8** %3, align 8, !dbg !2313
  %21 = invoke nonnull align 8 dereferenceable(32) %"class.std::basic_string"* @"?assign@?$basic_string@DU?$char_traits@D@std@@V?$allocator@D@2@@std@@QEAAAEAV12@QEBD@Z"(%"class.std::basic_string"* %9, i8* %20)
          to label %22 unwind label %23, !dbg !2314

22:                                               ; preds = %14
  call void @"?_Release@_Fake_proxy_ptr_impl@std@@QEAAXXZ"(%"struct.std::_Fake_proxy_ptr_impl"* %8) #5, !dbg !2315
  ret %"class.std::basic_string"* %9, !dbg !2316

23:                                               ; preds = %14, %2
  %24 = cleanuppad within none [], !dbg !2317
  call void @"??1?$_Compressed_pair@V?$allocator@D@std@@V?$_String_val@U?$_Simple_types@D@std@@@2@$00@std@@QEAA@XZ"(%"class.std::_Compressed_pair.0"* %10) #5 [ "funclet"(token %24) ], !dbg !2317
  cleanupret from %24 unwind to caller, !dbg !2317
}

; Function Attrs: nounwind readnone
declare dso_local void @llvm.eha.scope.begin() #4

declare dso_local i32 @__CxxFrameHandler3(...)

; Function Attrs: noinline optnone uwtable
define linkonce_odr dso_local void @"??$?HDU?$char_traits@D@std@@V?$allocator@D@1@@std@@YA?AV?$basic_string@DU?$char_traits@D@std@@V?$allocator@D@2@@0@$$QEAV10@QEBD@Z"(%"class.std::basic_string"* noalias sret align 8 %0, %"class.std::basic_string"* nonnull align 8 dereferenceable(32) %1, i8* %2) #0 comdat !dbg !2318 {
  %4 = alloca i8*, align 8
  %5 = alloca i8*, align 8
  %6 = alloca %"class.std::basic_string"*, align 8
  %7 = bitcast %"class.std::basic_string"* %0 to i8*
  store i8* %7, i8** %4, align 8
  store i8* %2, i8** %5, align 8
  call void @llvm.dbg.declare(metadata i8** %5, metadata !2321, metadata !DIExpression()), !dbg !2322
  store %"class.std::basic_string"* %1, %"class.std::basic_string"** %6, align 8
  call void @llvm.dbg.declare(metadata %"class.std::basic_string"** %6, metadata !2323, metadata !DIExpression()), !dbg !2324
  %8 = load %"class.std::basic_string"*, %"class.std::basic_string"** %6, align 8, !dbg !2325
  %9 = load i8*, i8** %5, align 8, !dbg !2326
  %10 = call nonnull align 8 dereferenceable(32) %"class.std::basic_string"* @"?append@?$basic_string@DU?$char_traits@D@std@@V?$allocator@D@2@@std@@QEAAAEAV12@QEBD@Z"(%"class.std::basic_string"* %8, i8* %9), !dbg !2327
  %11 = call nonnull align 8 dereferenceable(32) %"class.std::basic_string"* @"??$move@AEAV?$basic_string@DU?$char_traits@D@std@@V?$allocator@D@2@@std@@@std@@YA$$QEAV?$basic_string@DU?$char_traits@D@std@@V?$allocator@D@2@@0@AEAV10@@Z"(%"class.std::basic_string"* nonnull align 8 dereferenceable(32) %10) #5, !dbg !2328
  %12 = call %"class.std::basic_string"* @"??0?$basic_string@DU?$char_traits@D@std@@V?$allocator@D@2@@std@@QEAA@$$QEAV01@@Z"(%"class.std::basic_string"* %0, %"class.std::basic_string"* nonnull align 8 dereferenceable(32) %11) #5, !dbg !2328
  ret void, !dbg !2329
}

; Function Attrs: noinline optnone uwtable
define linkonce_odr dso_local void @"??$?HDU?$char_traits@D@std@@V?$allocator@D@1@@std@@YA?AV?$basic_string@DU?$char_traits@D@std@@V?$allocator@D@2@@0@$$QEAV10@0@Z"(%"class.std::basic_string"* noalias sret align 8 %0, %"class.std::basic_string"* nonnull align 8 dereferenceable(32) %1, %"class.std::basic_string"* nonnull align 8 dereferenceable(32) %2) #0 comdat !dbg !2330 {
  %4 = alloca i8*, align 8
  %5 = alloca %"class.std::basic_string"*, align 8
  %6 = alloca %"class.std::basic_string"*, align 8
  %7 = alloca %"struct.std::_String_constructor_concat_tag", align 1
  %8 = bitcast %"class.std::basic_string"* %0 to i8*
  store i8* %8, i8** %4, align 8
  store %"class.std::basic_string"* %2, %"class.std::basic_string"** %5, align 8
  call void @llvm.dbg.declare(metadata %"class.std::basic_string"** %5, metadata !2333, metadata !DIExpression()), !dbg !2334
  store %"class.std::basic_string"* %1, %"class.std::basic_string"** %6, align 8
  call void @llvm.dbg.declare(metadata %"class.std::basic_string"** %6, metadata !2335, metadata !DIExpression()), !dbg !2336
  %9 = load %"class.std::basic_string"*, %"class.std::basic_string"** %6, align 8, !dbg !2337
  %10 = load %"class.std::basic_string"*, %"class.std::basic_string"** %5, align 8, !dbg !2338
  %11 = getelementptr inbounds %"struct.std::_String_constructor_concat_tag", %"struct.std::_String_constructor_concat_tag"* %7, i32 0, i32 0, !dbg !2339
  %12 = load i8, i8* %11, align 1, !dbg !2339
  %13 = call %"class.std::basic_string"* @"??0?$basic_string@DU?$char_traits@D@std@@V?$allocator@D@2@@std@@QEAA@U_String_constructor_concat_tag@1@AEAV01@1@Z"(%"class.std::basic_string"* %0, i8 %12, %"class.std::basic_string"* nonnull align 8 dereferenceable(32) %9, %"class.std::basic_string"* nonnull align 8 dereferenceable(32) %10), !dbg !2339
  ret void, !dbg !2340
}

; Function Attrs: noinline optnone uwtable
define linkonce_odr dso_local %"class.std::basic_string"* @"??0?$basic_string@DU?$char_traits@D@std@@V?$allocator@D@2@@std@@QEAA@AEBV01@@Z"(%"class.std::basic_string"* returned %0, %"class.std::basic_string"* nonnull align 8 dereferenceable(32) %1) unnamed_addr #0 comdat align 2 personality i8* bitcast (i32 (...)* @__CxxFrameHandler3 to i8*) !dbg !2341 {
  %3 = alloca %"class.std::basic_string"*, align 8
  %4 = alloca %"class.std::basic_string"*, align 8
  %5 = alloca %"class.std::allocator", align 1
  %6 = alloca %"struct.std::_One_then_variadic_args_t", align 1
  %7 = alloca %"struct.std::_Fake_allocator"*, align 8
  %8 = alloca %"struct.std::_Fake_allocator", align 1
  %9 = alloca %"struct.std::_Fake_proxy_ptr_impl", align 1
  store %"class.std::basic_string"* %1, %"class.std::basic_string"** %3, align 8
  call void @llvm.dbg.declare(metadata %"class.std::basic_string"** %3, metadata !2342, metadata !DIExpression()), !dbg !2343
  store %"class.std::basic_string"* %0, %"class.std::basic_string"** %4, align 8
  call void @llvm.dbg.declare(metadata %"class.std::basic_string"** %4, metadata !2344, metadata !DIExpression()), !dbg !2345
  %10 = load %"class.std::basic_string"*, %"class.std::basic_string"** %4, align 8
  %11 = getelementptr inbounds %"class.std::basic_string", %"class.std::basic_string"* %10, i32 0, i32 0, !dbg !2346
  %12 = load %"class.std::basic_string"*, %"class.std::basic_string"** %3, align 8, !dbg !2347
  %13 = call nonnull align 1 dereferenceable(1) %"class.std::allocator"* @"?_Getal@?$basic_string@DU?$char_traits@D@std@@V?$allocator@D@2@@std@@AEBAAEBV?$allocator@D@2@XZ"(%"class.std::basic_string"* %12) #5, !dbg !2348
  call void @"?select_on_container_copy_construction@?$_Default_allocator_traits@V?$allocator@D@std@@@std@@SA?AV?$allocator@D@2@AEBV32@@Z"(%"class.std::allocator"* sret align 1 %5, %"class.std::allocator"* nonnull align 1 dereferenceable(1) %13), !dbg !2349
  %14 = getelementptr inbounds %"struct.std::_One_then_variadic_args_t", %"struct.std::_One_then_variadic_args_t"* %6, i32 0, i32 0, !dbg !2346
  %15 = load i8, i8* %14, align 1, !dbg !2346
  %16 = call %"class.std::_Compressed_pair.0"* @"??$?0V?$allocator@D@std@@$$V@?$_Compressed_pair@V?$allocator@D@std@@V?$_String_val@U?$_Simple_types@D@std@@@2@$00@std@@QEAA@U_One_then_variadic_args_t@1@$$QEAV?$allocator@D@1@@Z"(%"class.std::_Compressed_pair.0"* %11, i8 %15, %"class.std::allocator"* nonnull align 1 dereferenceable(1) %5), !dbg !2346
  invoke void @llvm.eha.scope.begin()
          to label %17 unwind label %25, !dbg !2346

17:                                               ; preds = %2
  call void @llvm.dbg.declare(metadata %"struct.std::_Fake_allocator"** %7, metadata !2350, metadata !DIExpression()), !dbg !2352
  store %"struct.std::_Fake_allocator"* %8, %"struct.std::_Fake_allocator"** %7, align 8, !dbg !2352
  call void @llvm.dbg.declare(metadata %"struct.std::_Fake_proxy_ptr_impl"* %9, metadata !2353, metadata !DIExpression()), !dbg !2354
  %18 = getelementptr inbounds %"class.std::basic_string", %"class.std::basic_string"* %10, i32 0, i32 0, !dbg !2355
  %19 = getelementptr inbounds %"class.std::_Compressed_pair.0", %"class.std::_Compressed_pair.0"* %18, i32 0, i32 0, !dbg !2356
  %20 = bitcast %"class.std::_String_val"* %19 to %"struct.std::_Container_base0"*, !dbg !2355
  %21 = load %"struct.std::_Fake_allocator"*, %"struct.std::_Fake_allocator"** %7, align 8, !dbg !2357
  %22 = call %"struct.std::_Fake_proxy_ptr_impl"* @"??0_Fake_proxy_ptr_impl@std@@QEAA@AEBU_Fake_allocator@1@AEBU_Container_base0@1@@Z"(%"struct.std::_Fake_proxy_ptr_impl"* %9, %"struct.std::_Fake_allocator"* nonnull align 1 dereferenceable(1) %21, %"struct.std::_Container_base0"* nonnull align 1 dereferenceable(1) %20) #5, !dbg !2354
  %23 = load %"class.std::basic_string"*, %"class.std::basic_string"** %3, align 8, !dbg !2358
  invoke void @"?_Construct_lv_contents@?$basic_string@DU?$char_traits@D@std@@V?$allocator@D@2@@std@@AEAAXAEBV12@@Z"(%"class.std::basic_string"* %10, %"class.std::basic_string"* nonnull align 8 dereferenceable(32) %23)
          to label %24 unwind label %25, !dbg !2359

24:                                               ; preds = %17
  call void @"?_Release@_Fake_proxy_ptr_impl@std@@QEAAXXZ"(%"struct.std::_Fake_proxy_ptr_impl"* %9) #5, !dbg !2360
  ret %"class.std::basic_string"* %10, !dbg !2361

25:                                               ; preds = %17, %2
  %26 = cleanuppad within none [], !dbg !2362
  call void @"??1?$_Compressed_pair@V?$allocator@D@std@@V?$_String_val@U?$_Simple_types@D@std@@@2@$00@std@@QEAA@XZ"(%"class.std::_Compressed_pair.0"* %11) #5 [ "funclet"(token %26) ], !dbg !2362
  cleanupret from %26 unwind to caller, !dbg !2362
}

; Function Attrs: noinline nounwind optnone uwtable
define linkonce_odr dso_local nonnull align 8 dereferenceable(32) %"class.std::basic_string"* @"??4?$basic_string@DU?$char_traits@D@std@@V?$allocator@D@2@@std@@QEAAAEAV01@$$QEAV01@@Z"(%"class.std::basic_string"* %0, %"class.std::basic_string"* nonnull align 8 dereferenceable(32) %1) #1 comdat align 2 !dbg !2363 {
  %3 = alloca %"class.std::basic_string"*, align 8
  %4 = alloca %"class.std::basic_string"*, align 8
  %5 = alloca %"struct.std::_Equal_allocators", align 1
  store %"class.std::basic_string"* %1, %"class.std::basic_string"** %3, align 8
  call void @llvm.dbg.declare(metadata %"class.std::basic_string"** %3, metadata !2364, metadata !DIExpression()), !dbg !2365
  store %"class.std::basic_string"* %0, %"class.std::basic_string"** %4, align 8
  call void @llvm.dbg.declare(metadata %"class.std::basic_string"** %4, metadata !2366, metadata !DIExpression()), !dbg !2367
  %6 = load %"class.std::basic_string"*, %"class.std::basic_string"** %4, align 8
  %7 = load %"class.std::basic_string"*, %"class.std::basic_string"** %3, align 8, !dbg !2368
  %8 = call %"class.std::basic_string"* @"??$addressof@V?$basic_string@DU?$char_traits@D@std@@V?$allocator@D@2@@std@@@std@@YAPEAV?$basic_string@DU?$char_traits@D@std@@V?$allocator@D@2@@0@AEAV10@@Z"(%"class.std::basic_string"* nonnull align 8 dereferenceable(32) %7) #5, !dbg !2370
  %9 = icmp ne %"class.std::basic_string"* %6, %8, !dbg !2371
  br i1 %9, label %10, label %14, !dbg !2372

10:                                               ; preds = %2
  %11 = load %"class.std::basic_string"*, %"class.std::basic_string"** %3, align 8, !dbg !2373
  %12 = getelementptr inbounds %"struct.std::_Equal_allocators", %"struct.std::_Equal_allocators"* %5, i32 0, i32 0, !dbg !2375
  %13 = load i8, i8* %12, align 1, !dbg !2375
  call void @"?_Move_assign@?$basic_string@DU?$char_traits@D@std@@V?$allocator@D@2@@std@@AEAAXAEAV12@U_Equal_allocators@2@@Z"(%"class.std::basic_string"* %6, %"class.std::basic_string"* nonnull align 8 dereferenceable(32) %11, i8 %13) #5, !dbg !2375
  br label %14, !dbg !2376

14:                                               ; preds = %10, %2
  ret %"class.std::basic_string"* %6, !dbg !2377
}

; Function Attrs: nounwind readnone
declare dso_local void @llvm.eha.scope.end() #4

; Function Attrs: noinline nounwind optnone uwtable
define linkonce_odr dso_local void @"??1?$basic_string@DU?$char_traits@D@std@@V?$allocator@D@2@@std@@QEAA@XZ"(%"class.std::basic_string"* %0) unnamed_addr #1 comdat align 2 !dbg !2378 {
  %2 = alloca %"class.std::basic_string"*, align 8
  store %"class.std::basic_string"* %0, %"class.std::basic_string"** %2, align 8
  call void @llvm.dbg.declare(metadata %"class.std::basic_string"** %2, metadata !2379, metadata !DIExpression()), !dbg !2380
  %3 = load %"class.std::basic_string"*, %"class.std::basic_string"** %2, align 8
  call void @"?_Tidy_deallocate@?$basic_string@DU?$char_traits@D@std@@V?$allocator@D@2@@std@@AEAAXXZ"(%"class.std::basic_string"* %3) #5, !dbg !2381
  %4 = getelementptr inbounds %"class.std::basic_string", %"class.std::basic_string"* %3, i32 0, i32 0, !dbg !2383
  call void @"??1?$_Compressed_pair@V?$allocator@D@std@@V?$_String_val@U?$_Simple_types@D@std@@@2@$00@std@@QEAA@XZ"(%"class.std::_Compressed_pair.0"* %4) #5, !dbg !2383
  ret void, !dbg !2384
}

; Function Attrs: noinline optnone uwtable
define linkonce_odr dso_local zeroext i1 @"??$?8HH@std@@YA_NAEBV?$optional@H@0@0@Z"(%"class.std::optional"* nonnull align 4 dereferenceable(8) %0, %"class.std::optional"* nonnull align 4 dereferenceable(8) %1) #0 comdat !dbg !2385 {
  %3 = alloca %"class.std::optional"*, align 8
  %4 = alloca %"class.std::optional"*, align 8
  %5 = alloca i8, align 1
  store %"class.std::optional"* %1, %"class.std::optional"** %3, align 8
  call void @llvm.dbg.declare(metadata %"class.std::optional"** %3, metadata !2391, metadata !DIExpression()), !dbg !2392
  store %"class.std::optional"* %0, %"class.std::optional"** %4, align 8
  call void @llvm.dbg.declare(metadata %"class.std::optional"** %4, metadata !2393, metadata !DIExpression()), !dbg !2394
  call void @llvm.dbg.declare(metadata i8* %5, metadata !2395, metadata !DIExpression()), !dbg !2396
  %6 = load %"class.std::optional"*, %"class.std::optional"** %4, align 8, !dbg !2397
  %7 = call zeroext i1 @"?has_value@?$optional@H@std@@QEBA_NXZ"(%"class.std::optional"* %6) #5, !dbg !2398
  %8 = zext i1 %7 to i8, !dbg !2396
  store i8 %8, i8* %5, align 1, !dbg !2396
  %9 = load i8, i8* %5, align 1, !dbg !2399
  %10 = trunc i8 %9 to i1, !dbg !2399
  %11 = zext i1 %10 to i32, !dbg !2399
  %12 = load %"class.std::optional"*, %"class.std::optional"** %3, align 8, !dbg !2400
  %13 = call zeroext i1 @"?has_value@?$optional@H@std@@QEBA_NXZ"(%"class.std::optional"* %12) #5, !dbg !2401
  %14 = zext i1 %13 to i32, !dbg !2400
  %15 = icmp eq i32 %11, %14, !dbg !2402
  br i1 %15, label %16, label %29, !dbg !2403

16:                                               ; preds = %2
  %17 = load i8, i8* %5, align 1, !dbg !2404
  %18 = trunc i8 %17 to i1, !dbg !2404
  br i1 %18, label %19, label %27, !dbg !2405

19:                                               ; preds = %16
  %20 = load %"class.std::optional"*, %"class.std::optional"** %4, align 8, !dbg !2406
  %21 = call nonnull align 4 dereferenceable(4) i32* @"??D?$optional@H@std@@QEGBAAEBHXZ"(%"class.std::optional"* %20), !dbg !2407
  %22 = load i32, i32* %21, align 4, !dbg !2407
  %23 = load %"class.std::optional"*, %"class.std::optional"** %3, align 8, !dbg !2408
  %24 = call nonnull align 4 dereferenceable(4) i32* @"??D?$optional@H@std@@QEGBAAEBHXZ"(%"class.std::optional"* %23), !dbg !2409
  %25 = load i32, i32* %24, align 4, !dbg !2409
  %26 = icmp eq i32 %22, %25, !dbg !2410
  br label %27, !dbg !2405

27:                                               ; preds = %19, %16
  %28 = phi i1 [ true, %16 ], [ %26, %19 ]
  br label %29

29:                                               ; preds = %27, %2
  %30 = phi i1 [ false, %2 ], [ %28, %27 ], !dbg !2411
  ret i1 %30, !dbg !2412
}

; Function Attrs: nounwind
declare void @llvm.debugtrap() #5

; Function Attrs: noinline optnone uwtable
define dso_local dllexport void @"?expectedTest@expression@test@@YAXXZ"() #0 personality i8* bitcast (i32 (...)* @__CxxFrameHandler3 to i8*) !dbg !2413 {
  %1 = alloca %"class.tl::expected", align 4
  %2 = alloca %"class.tl::expected", align 4
  %3 = alloca %"class.std::basic_string", align 8
  %4 = alloca %"class.std::basic_string", align 8
  %5 = alloca %"class.std::basic_string", align 8
  %6 = alloca %"class.std::basic_string", align 8
  %7 = alloca %"class.std::basic_string", align 8
  %8 = alloca %class.ClassWithDestructor, align 4
  %9 = alloca %class.ClassWithDestructor, align 4
  %10 = alloca %"class.std::basic_string", align 8
  %11 = alloca %"class.std::basic_string", align 8
  %12 = alloca %"class.std::basic_string", align 8
  %13 = alloca %"class.std::basic_string", align 8
  %14 = alloca %"class.std::basic_string", align 8
  call void @llvm.dbg.declare(metadata %"class.tl::expected"* %1, metadata !2414, metadata !DIExpression()), !dbg !2697
  %15 = call %"class.tl::expected"* @"??0?$expected@HH@tl@@QEAA@XZ"(%"class.tl::expected"* %1), !dbg !2697
  call void @llvm.dbg.declare(metadata %"class.tl::expected"* %2, metadata !2698, metadata !DIExpression()), !dbg !2699
  %16 = call %"class.tl::expected"* @"??0?$expected@HH@tl@@QEAA@XZ"(%"class.tl::expected"* %2), !dbg !2699
  call void @llvm.dbg.declare(metadata %"class.std::basic_string"* %3, metadata !2700, metadata !DIExpression()), !dbg !2701
  %17 = call %"class.std::basic_string"* @"??0?$basic_string@DU?$char_traits@D@std@@V?$allocator@D@2@@std@@QEAA@QEBD@Z"(%"class.std::basic_string"* %3, i8* getelementptr inbounds ([376 x i8], [376 x i8]* @"??_C@_0BHI@LCBKPAJ@a?$DN5?$DLFAIL_TEST_IF_FALSE?$CIa?4value?$CI?$CJ@", i64 0, i64 0)), !dbg !2702
  invoke void @llvm.eha.scope.begin()
          to label %18 unwind label %108, !dbg !2703

18:                                               ; preds = %0
  %19 = invoke %"class.std::basic_string"* @"??0?$basic_string@DU?$char_traits@D@std@@V?$allocator@D@2@@std@@QEAA@AEBV01@@Z"(%"class.std::basic_string"* %6, %"class.std::basic_string"* nonnull align 8 dereferenceable(32) %3)
          to label %20 unwind label %108, !dbg !2704

20:                                               ; preds = %18
  invoke void @llvm.eha.scope.begin()
          to label %21 unwind label %44, !dbg !2704

21:                                               ; preds = %20
  %22 = invoke %"class.std::basic_string"* @"??0?$basic_string@DU?$char_traits@D@std@@V?$allocator@D@2@@std@@QEAA@QEBD@Z"(%"class.std::basic_string"* %7, i8* getelementptr inbounds ([94 x i8], [94 x i8]* @"??_C@_0FO@BMCOEJHP@?7?$CDdefine?5FAIL_TEST_IF_FALSE?$CIcond@", i64 0, i64 0))
          to label %23 unwind label %44, !dbg !2704

23:                                               ; preds = %21
  invoke void @llvm.eha.scope.begin()
          to label %24 unwind label %42, !dbg !2704

24:                                               ; preds = %23
  invoke void @"??$?HDU?$char_traits@D@std@@V?$allocator@D@1@@std@@YA?AV?$basic_string@DU?$char_traits@D@std@@V?$allocator@D@2@@0@$$QEAV10@0@Z"(%"class.std::basic_string"* sret align 8 %5, %"class.std::basic_string"* nonnull align 8 dereferenceable(32) %7, %"class.std::basic_string"* nonnull align 8 dereferenceable(32) %6)
          to label %25 unwind label %42, !dbg !2704

25:                                               ; preds = %24
  invoke void @llvm.eha.scope.begin()
          to label %26 unwind label %40, !dbg !2704

26:                                               ; preds = %25
  invoke void @"??$?HDU?$char_traits@D@std@@V?$allocator@D@1@@std@@YA?AV?$basic_string@DU?$char_traits@D@std@@V?$allocator@D@2@@0@$$QEAV10@QEBD@Z"(%"class.std::basic_string"* sret align 8 %4, %"class.std::basic_string"* nonnull align 8 dereferenceable(32) %5, i8* getelementptr inbounds ([31 x i8], [31 x i8]* @"??_C@_0BP@FJINOLPO@?$DLg_shouldPauseExecute?5?$DN?5false?$DL?$AA@", i64 0, i64 0))
          to label %27 unwind label %40, !dbg !2704

27:                                               ; preds = %26
  invoke void @llvm.eha.scope.begin()
          to label %28 unwind label %38, !dbg !2704

28:                                               ; preds = %27
  %29 = call nonnull align 8 dereferenceable(32) %"class.std::basic_string"* @"??4?$basic_string@DU?$char_traits@D@std@@V?$allocator@D@2@@std@@QEAAAEAV01@$$QEAV01@@Z"(%"class.std::basic_string"* @"?g_expr@@3V?$basic_string@DU?$char_traits@D@std@@V?$allocator@D@2@@std@@A", %"class.std::basic_string"* nonnull align 8 dereferenceable(32) %4) #5, !dbg !2704
  invoke void @llvm.eha.scope.end()
          to label %30 unwind label %38, !dbg !2704

30:                                               ; preds = %28
  call void @"??1?$basic_string@DU?$char_traits@D@std@@V?$allocator@D@2@@std@@QEAA@XZ"(%"class.std::basic_string"* %4) #5, !dbg !2704
  invoke void @llvm.eha.scope.end()
          to label %31 unwind label %40, !dbg !2704

31:                                               ; preds = %30
  call void @"??1?$basic_string@DU?$char_traits@D@std@@V?$allocator@D@2@@std@@QEAA@XZ"(%"class.std::basic_string"* %5) #5, !dbg !2704
  invoke void @llvm.eha.scope.end()
          to label %32 unwind label %42, !dbg !2704

32:                                               ; preds = %31
  call void @"??1?$basic_string@DU?$char_traits@D@std@@V?$allocator@D@2@@std@@QEAA@XZ"(%"class.std::basic_string"* %7) #5, !dbg !2704
  invoke void @llvm.eha.scope.end()
          to label %33 unwind label %44, !dbg !2704

33:                                               ; preds = %32
  call void @"??1?$basic_string@DU?$char_traits@D@std@@V?$allocator@D@2@@std@@QEAA@XZ"(%"class.std::basic_string"* %6) #5, !dbg !2704
  store i8 1, i8* @"?g_shouldPauseExecute@@3_NA", align 1, !dbg !2704
  store i8 1, i8* @"?g_notifyBp@@3_NA", align 1, !dbg !2704
  br label %34, !dbg !2704

34:                                               ; preds = %37, %33
  %35 = load i8, i8* @"?g_shouldPauseExecute@@3_NA", align 1, !dbg !2704
  %36 = trunc i8 %35 to i1, !dbg !2704
  br i1 %36, label %37, label %46, !dbg !2704

37:                                               ; preds = %34
  br label %34, !dbg !2704, !llvm.loop !2705

38:                                               ; preds = %28, %27
  %39 = cleanuppad within none [], !dbg !2704
  call void @"??1?$basic_string@DU?$char_traits@D@std@@V?$allocator@D@2@@std@@QEAA@XZ"(%"class.std::basic_string"* %4) #5 [ "funclet"(token %39) ], !dbg !2704
  cleanupret from %39 unwind label %40, !dbg !2704

40:                                               ; preds = %30, %38, %26, %25
  %41 = cleanuppad within none [], !dbg !2704
  call void @"??1?$basic_string@DU?$char_traits@D@std@@V?$allocator@D@2@@std@@QEAA@XZ"(%"class.std::basic_string"* %5) #5 [ "funclet"(token %41) ], !dbg !2704
  cleanupret from %41 unwind label %42, !dbg !2704

42:                                               ; preds = %31, %40, %24, %23
  %43 = cleanuppad within none [], !dbg !2704
  call void @"??1?$basic_string@DU?$char_traits@D@std@@V?$allocator@D@2@@std@@QEAA@XZ"(%"class.std::basic_string"* %7) #5 [ "funclet"(token %43) ], !dbg !2704
  cleanupret from %43 unwind label %44, !dbg !2704

44:                                               ; preds = %32, %42, %21, %20
  %45 = cleanuppad within none [], !dbg !2704
  call void @"??1?$basic_string@DU?$char_traits@D@std@@V?$allocator@D@2@@std@@QEAA@XZ"(%"class.std::basic_string"* %6) #5 [ "funclet"(token %45) ], !dbg !2704
  cleanupret from %45 unwind label %108, !dbg !2704

46:                                               ; preds = %34
  %47 = invoke nonnull align 4 dereferenceable(4) i32* @"?error@?$expected@HH@tl@@QEGAAAEAHXZ"(%"class.tl::expected"* %2)
          to label %48 unwind label %108, !dbg !2706

48:                                               ; preds = %46
  %49 = load i32, i32* %47, align 4, !dbg !2706
  %50 = icmp eq i32 %49, 2, !dbg !2706
  br i1 %50, label %52, label %51, !dbg !2708

51:                                               ; preds = %48
  call void @llvm.debugtrap(), !dbg !2709
  br label %52, !dbg !2709

52:                                               ; preds = %51, %48
  call void @llvm.dbg.declare(metadata %class.ClassWithDestructor* %8, metadata !2711, metadata !DIExpression()), !dbg !2712
  %53 = invoke %class.ClassWithDestructor* @"??0ClassWithDestructor@@QEAA@H@Z"(%class.ClassWithDestructor* %8, i32 1)
          to label %54 unwind label %108, !dbg !2712

54:                                               ; preds = %52
  invoke void @llvm.eha.scope.begin()
          to label %55 unwind label %106, !dbg !2713

55:                                               ; preds = %54
  call void @llvm.dbg.declare(metadata %class.ClassWithDestructor* %9, metadata !2714, metadata !DIExpression()), !dbg !2715
  %56 = invoke %class.ClassWithDestructor* @"??0ClassWithDestructor@@QEAA@AEBV0@@Z"(%class.ClassWithDestructor* %9, %class.ClassWithDestructor* nonnull align 4 dereferenceable(4) %8)
          to label %57 unwind label %106, !dbg !2716

57:                                               ; preds = %55
  invoke void @llvm.eha.scope.begin()
          to label %58 unwind label %104, !dbg !2717

58:                                               ; preds = %57
  %59 = invoke nonnull align 4 dereferenceable(4) %class.ClassWithDestructor* @"??4ClassWithDestructor@@QEAAAEAV0@AEBV0@@Z"(%class.ClassWithDestructor* %8, %class.ClassWithDestructor* nonnull align 4 dereferenceable(4) %8)
          to label %60 unwind label %104, !dbg !2718

60:                                               ; preds = %58
  %61 = invoke zeroext i1 @"??8ClassWithDestructor@@QEBA_NAEBV0@@Z"(%class.ClassWithDestructor* %8, %class.ClassWithDestructor* nonnull align 4 dereferenceable(4) %8)
          to label %62 unwind label %104, !dbg !2719

62:                                               ; preds = %60
  call void @llvm.dbg.declare(metadata %"class.std::basic_string"* %10, metadata !2720, metadata !DIExpression()), !dbg !2721
  %63 = invoke %"class.std::basic_string"* @"??0?$basic_string@DU?$char_traits@D@std@@V?$allocator@D@2@@std@@QEAA@QEBD@Z"(%"class.std::basic_string"* %10, i8* getelementptr inbounds ([104 x i8], [104 x i8]* @"??_C@_0GI@LCFJNAAH@std?3?3expected?$DMClassWithDestructo@", i64 0, i64 0))
          to label %64 unwind label %104, !dbg !2722

64:                                               ; preds = %62
  invoke void @llvm.eha.scope.begin()
          to label %65 unwind label %102, !dbg !2723

65:                                               ; preds = %64
  %66 = invoke %"class.std::basic_string"* @"??0?$basic_string@DU?$char_traits@D@std@@V?$allocator@D@2@@std@@QEAA@AEBV01@@Z"(%"class.std::basic_string"* %13, %"class.std::basic_string"* nonnull align 8 dereferenceable(32) %10)
          to label %67 unwind label %102, !dbg !2724

67:                                               ; preds = %65
  invoke void @llvm.eha.scope.begin()
          to label %68 unwind label %91, !dbg !2724

68:                                               ; preds = %67
  %69 = invoke %"class.std::basic_string"* @"??0?$basic_string@DU?$char_traits@D@std@@V?$allocator@D@2@@std@@QEAA@QEBD@Z"(%"class.std::basic_string"* %14, i8* getelementptr inbounds ([94 x i8], [94 x i8]* @"??_C@_0FO@BMCOEJHP@?7?$CDdefine?5FAIL_TEST_IF_FALSE?$CIcond@", i64 0, i64 0))
          to label %70 unwind label %91, !dbg !2724

70:                                               ; preds = %68
  invoke void @llvm.eha.scope.begin()
          to label %71 unwind label %89, !dbg !2724

71:                                               ; preds = %70
  invoke void @"??$?HDU?$char_traits@D@std@@V?$allocator@D@1@@std@@YA?AV?$basic_string@DU?$char_traits@D@std@@V?$allocator@D@2@@0@$$QEAV10@0@Z"(%"class.std::basic_string"* sret align 8 %12, %"class.std::basic_string"* nonnull align 8 dereferenceable(32) %14, %"class.std::basic_string"* nonnull align 8 dereferenceable(32) %13)
          to label %72 unwind label %89, !dbg !2724

72:                                               ; preds = %71
  invoke void @llvm.eha.scope.begin()
          to label %73 unwind label %87, !dbg !2724

73:                                               ; preds = %72
  invoke void @"??$?HDU?$char_traits@D@std@@V?$allocator@D@1@@std@@YA?AV?$basic_string@DU?$char_traits@D@std@@V?$allocator@D@2@@0@$$QEAV10@QEBD@Z"(%"class.std::basic_string"* sret align 8 %11, %"class.std::basic_string"* nonnull align 8 dereferenceable(32) %12, i8* getelementptr inbounds ([31 x i8], [31 x i8]* @"??_C@_0BP@FJINOLPO@?$DLg_shouldPauseExecute?5?$DN?5false?$DL?$AA@", i64 0, i64 0))
          to label %74 unwind label %87, !dbg !2724

74:                                               ; preds = %73
  invoke void @llvm.eha.scope.begin()
          to label %75 unwind label %85, !dbg !2724

75:                                               ; preds = %74
  %76 = call nonnull align 8 dereferenceable(32) %"class.std::basic_string"* @"??4?$basic_string@DU?$char_traits@D@std@@V?$allocator@D@2@@std@@QEAAAEAV01@$$QEAV01@@Z"(%"class.std::basic_string"* @"?g_expr@@3V?$basic_string@DU?$char_traits@D@std@@V?$allocator@D@2@@std@@A", %"class.std::basic_string"* nonnull align 8 dereferenceable(32) %11) #5, !dbg !2724
  invoke void @llvm.eha.scope.end()
          to label %77 unwind label %85, !dbg !2724

77:                                               ; preds = %75
  call void @"??1?$basic_string@DU?$char_traits@D@std@@V?$allocator@D@2@@std@@QEAA@XZ"(%"class.std::basic_string"* %11) #5, !dbg !2724
  invoke void @llvm.eha.scope.end()
          to label %78 unwind label %87, !dbg !2724

78:                                               ; preds = %77
  call void @"??1?$basic_string@DU?$char_traits@D@std@@V?$allocator@D@2@@std@@QEAA@XZ"(%"class.std::basic_string"* %12) #5, !dbg !2724
  invoke void @llvm.eha.scope.end()
          to label %79 unwind label %89, !dbg !2724

79:                                               ; preds = %78
  call void @"??1?$basic_string@DU?$char_traits@D@std@@V?$allocator@D@2@@std@@QEAA@XZ"(%"class.std::basic_string"* %14) #5, !dbg !2724
  invoke void @llvm.eha.scope.end()
          to label %80 unwind label %91, !dbg !2724

80:                                               ; preds = %79
  call void @"??1?$basic_string@DU?$char_traits@D@std@@V?$allocator@D@2@@std@@QEAA@XZ"(%"class.std::basic_string"* %13) #5, !dbg !2724
  store i8 1, i8* @"?g_shouldPauseExecute@@3_NA", align 1, !dbg !2724
  store i8 1, i8* @"?g_notifyBp@@3_NA", align 1, !dbg !2724
  br label %81, !dbg !2724

81:                                               ; preds = %84, %80
  %82 = load i8, i8* @"?g_shouldPauseExecute@@3_NA", align 1, !dbg !2724
  %83 = trunc i8 %82 to i1, !dbg !2724
  br i1 %83, label %84, label %93, !dbg !2724

84:                                               ; preds = %81
  br label %81, !dbg !2724, !llvm.loop !2725

85:                                               ; preds = %75, %74
  %86 = cleanuppad within none [], !dbg !2724
  call void @"??1?$basic_string@DU?$char_traits@D@std@@V?$allocator@D@2@@std@@QEAA@XZ"(%"class.std::basic_string"* %11) #5 [ "funclet"(token %86) ], !dbg !2724
  cleanupret from %86 unwind label %87, !dbg !2724

87:                                               ; preds = %77, %85, %73, %72
  %88 = cleanuppad within none [], !dbg !2724
  call void @"??1?$basic_string@DU?$char_traits@D@std@@V?$allocator@D@2@@std@@QEAA@XZ"(%"class.std::basic_string"* %12) #5 [ "funclet"(token %88) ], !dbg !2724
  cleanupret from %88 unwind label %89, !dbg !2724

89:                                               ; preds = %78, %87, %71, %70
  %90 = cleanuppad within none [], !dbg !2724
  call void @"??1?$basic_string@DU?$char_traits@D@std@@V?$allocator@D@2@@std@@QEAA@XZ"(%"class.std::basic_string"* %14) #5 [ "funclet"(token %90) ], !dbg !2724
  cleanupret from %90 unwind label %91, !dbg !2724

91:                                               ; preds = %79, %89, %68, %67
  %92 = cleanuppad within none [], !dbg !2724
  call void @"??1?$basic_string@DU?$char_traits@D@std@@V?$allocator@D@2@@std@@QEAA@XZ"(%"class.std::basic_string"* %13) #5 [ "funclet"(token %92) ], !dbg !2724
  cleanupret from %92 unwind label %102, !dbg !2724

93:                                               ; preds = %81
  %94 = load i32, i32* @"?g_counter@expression@test@@3HA", align 4, !dbg !2726
  %95 = icmp ne i32 %94, 0, !dbg !2726
  br i1 %95, label %97, label %96, !dbg !2728

96:                                               ; preds = %93
  call void @llvm.debugtrap(), !dbg !2729
  br label %97, !dbg !2729

97:                                               ; preds = %96, %93
  invoke void @llvm.eha.scope.end()
          to label %98 unwind label %102, !dbg !2731

98:                                               ; preds = %97
  call void @"??1?$basic_string@DU?$char_traits@D@std@@V?$allocator@D@2@@std@@QEAA@XZ"(%"class.std::basic_string"* %10) #5, !dbg !2731
  invoke void @llvm.eha.scope.end()
          to label %99 unwind label %104, !dbg !2731

99:                                               ; preds = %98
  call void @"??1ClassWithDestructor@@QEAA@XZ"(%class.ClassWithDestructor* %9) #5, !dbg !2731
  invoke void @llvm.eha.scope.end()
          to label %100 unwind label %106, !dbg !2731

100:                                              ; preds = %99
  call void @"??1ClassWithDestructor@@QEAA@XZ"(%class.ClassWithDestructor* %8) #5, !dbg !2731
  invoke void @llvm.eha.scope.end()
          to label %101 unwind label %108, !dbg !2731

101:                                              ; preds = %100
  call void @"??1?$basic_string@DU?$char_traits@D@std@@V?$allocator@D@2@@std@@QEAA@XZ"(%"class.std::basic_string"* %3) #5, !dbg !2731
  ret void, !dbg !2731

102:                                              ; preds = %97, %91, %65, %64
  %103 = cleanuppad within none [], !dbg !2731
  call void @"??1?$basic_string@DU?$char_traits@D@std@@V?$allocator@D@2@@std@@QEAA@XZ"(%"class.std::basic_string"* %10) #5 [ "funclet"(token %103) ], !dbg !2731
  cleanupret from %103 unwind label %104, !dbg !2731

104:                                              ; preds = %98, %102, %62, %60, %58, %57
  %105 = cleanuppad within none [], !dbg !2731
  call void @"??1ClassWithDestructor@@QEAA@XZ"(%class.ClassWithDestructor* %9) #5 [ "funclet"(token %105) ], !dbg !2731
  cleanupret from %105 unwind label %106, !dbg !2731

106:                                              ; preds = %99, %104, %55, %54
  %107 = cleanuppad within none [], !dbg !2731
  call void @"??1ClassWithDestructor@@QEAA@XZ"(%class.ClassWithDestructor* %8) #5 [ "funclet"(token %107) ], !dbg !2731
  cleanupret from %107 unwind label %108, !dbg !2731

108:                                              ; preds = %100, %106, %52, %46, %44, %18, %0
  %109 = cleanuppad within none [], !dbg !2731
  call void @"??1?$basic_string@DU?$char_traits@D@std@@V?$allocator@D@2@@std@@QEAA@XZ"(%"class.std::basic_string"* %3) #5 [ "funclet"(token %109) ], !dbg !2731
  cleanupret from %109 unwind to caller, !dbg !2731
}

; Function Attrs: noinline optnone uwtable
define linkonce_odr dso_local %"class.tl::expected"* @"??0?$expected@HH@tl@@QEAA@XZ"(%"class.tl::expected"* returned %0) unnamed_addr #0 comdat align 2 !dbg !2732 {
  %2 = alloca %"class.tl::expected"*, align 8
  store %"class.tl::expected"* %0, %"class.tl::expected"** %2, align 8
  call void @llvm.dbg.declare(metadata %"class.tl::expected"** %2, metadata !2733, metadata !DIExpression()), !dbg !2735
  %3 = load %"class.tl::expected"*, %"class.tl::expected"** %2, align 8
  %4 = bitcast %"class.tl::expected"* %3 to %"struct.tl::detail::expected_move_assign_base"*, !dbg !2736
  %5 = call %"struct.tl::detail::expected_move_assign_base"* @"??0?$expected_move_assign_base@HH$00@detail@tl@@QEAA@XZ"(%"struct.tl::detail::expected_move_assign_base"* %4), !dbg !2737
  %6 = bitcast %"class.tl::expected"* %3 to i8*, !dbg !2736
  %7 = getelementptr inbounds i8, i8* %6, i64 8, !dbg !2736
  %8 = bitcast i8* %7 to %"struct.tl::detail::expected_delete_ctor_base"*, !dbg !2736
  %9 = bitcast %"class.tl::expected"* %3 to i8*, !dbg !2736
  %10 = getelementptr inbounds i8, i8* %9, i64 9, !dbg !2736
  %11 = bitcast i8* %10 to %"struct.tl::detail::expected_delete_assign_base"*, !dbg !2736
  %12 = bitcast %"class.tl::expected"* %3 to i8*, !dbg !2736
  %13 = getelementptr inbounds i8, i8* %12, i64 10, !dbg !2736
  %14 = bitcast i8* %13 to %"struct.tl::detail::expected_default_ctor_base"*, !dbg !2736
  ret %"class.tl::expected"* %3, !dbg !2736
}

; Function Attrs: noinline optnone uwtable
define linkonce_odr dso_local nonnull align 4 dereferenceable(4) i32* @"?error@?$expected@HH@tl@@QEGAAAEAHXZ"(%"class.tl::expected"* %0) #0 comdat align 2 !dbg !2738 {
  %2 = alloca %"class.tl::expected"*, align 8
  store %"class.tl::expected"* %0, %"class.tl::expected"** %2, align 8
  call void @llvm.dbg.declare(metadata %"class.tl::expected"** %2, metadata !2739, metadata !DIExpression()), !dbg !2740
  %3 = load %"class.tl::expected"*, %"class.tl::expected"** %2, align 8
  %4 = call nonnull align 4 dereferenceable(4) %"class.tl::unexpected"* @"?err@?$expected@HH@tl@@AEAAAEAV?$unexpected@H@2@XZ"(%"class.tl::expected"* %3), !dbg !2741
  %5 = call nonnull align 4 dereferenceable(4) i32* @"?value@?$unexpected@H@tl@@QEGAAAEAHXZ"(%"class.tl::unexpected"* %4), !dbg !2742
  ret i32* %5, !dbg !2743
}

declare dso_local %class.ClassWithDestructor* @"??0ClassWithDestructor@@QEAA@H@Z"(%class.ClassWithDestructor* returned, i32) unnamed_addr #6

declare dso_local %class.ClassWithDestructor* @"??0ClassWithDestructor@@QEAA@AEBV0@@Z"(%class.ClassWithDestructor* returned, %class.ClassWithDestructor* nonnull align 4 dereferenceable(4)) unnamed_addr #6

declare dso_local nonnull align 4 dereferenceable(4) %class.ClassWithDestructor* @"??4ClassWithDestructor@@QEAAAEAV0@AEBV0@@Z"(%class.ClassWithDestructor*, %class.ClassWithDestructor* nonnull align 4 dereferenceable(4)) #6

declare dso_local zeroext i1 @"??8ClassWithDestructor@@QEBA_NAEBV0@@Z"(%class.ClassWithDestructor*, %class.ClassWithDestructor* nonnull align 4 dereferenceable(4)) #6

; Function Attrs: nounwind
declare dso_local void @"??1ClassWithDestructor@@QEAA@XZ"(%class.ClassWithDestructor*) unnamed_addr #7

; Function Attrs: noinline optnone uwtable
define dso_local void @"?returnShared@expression@test@@YA?AV?$shared_ptr@H@std@@XZ"(%"class.std::shared_ptr"* noalias sret align 8 %0) #0 !dbg !2744 {
  %2 = alloca i8*, align 8
  %3 = alloca i32, align 4
  %4 = bitcast %"class.std::shared_ptr"* %0 to i8*
  store i8* %4, i8** %2, align 8
  store i32 44, i32* %3, align 4, !dbg !2868
  call void @"??$make_shared@HH@std@@YA?AV?$shared_ptr@H@0@$$QEAH@Z"(%"class.std::shared_ptr"* sret align 8 %0, i32* nonnull align 4 dereferenceable(4) %3), !dbg !2869
  ret void, !dbg !2870
}

; Function Attrs: noinline optnone uwtable
define linkonce_odr dso_local void @"??$make_shared@HH@std@@YA?AV?$shared_ptr@H@0@$$QEAH@Z"(%"class.std::shared_ptr"* noalias sret align 8 %0, i32* nonnull align 4 dereferenceable(4) %1) #0 comdat personality i8* bitcast (i32 (...)* @__CxxFrameHandler3 to i8*) !dbg !2871 {
  %3 = alloca i8*, align 8
  %4 = alloca i32*, align 8
  %5 = alloca %"class.std::_Ref_count_obj2"*, align 8
  %6 = alloca i1, align 1
  %7 = bitcast %"class.std::shared_ptr"* %0 to i8*
  store i8* %7, i8** %3, align 8
  store i32* %1, i32** %4, align 8
  call void @llvm.dbg.declare(metadata i32** %4, metadata !2878, metadata !DIExpression()), !dbg !2879
  call void @llvm.dbg.declare(metadata %"class.std::_Ref_count_obj2"** %5, metadata !2880, metadata !DIExpression()), !dbg !2899
  %8 = call noalias nonnull i8* @"??2@YAPEAX_K@Z"(i64 24) #16, !dbg !2900, !heapallocsite !2883
  %9 = bitcast i8* %8 to %"class.std::_Ref_count_obj2"*, !dbg !2900
  %10 = load i32*, i32** %4, align 8, !dbg !2901
  %11 = call nonnull align 4 dereferenceable(4) i32* @"??$forward@H@std@@YA$$QEAHAEAH@Z"(i32* nonnull align 4 dereferenceable(4) %10) #5, !dbg !2902
  %12 = invoke %"class.std::_Ref_count_obj2"* @"??$?0H@?$_Ref_count_obj2@H@std@@QEAA@$$QEAH@Z"(%"class.std::_Ref_count_obj2"* %9, i32* nonnull align 4 dereferenceable(4) %11)
          to label %13 unwind label %23, !dbg !2903

13:                                               ; preds = %2
  store %"class.std::_Ref_count_obj2"* %9, %"class.std::_Ref_count_obj2"** %5, align 8, !dbg !2899
  store i1 false, i1* %6, align 1, !dbg !2904
  call void @llvm.dbg.declare(metadata i8** %3, metadata !2905, metadata !DIExpression(DW_OP_deref)), !dbg !2906
  %14 = call %"class.std::shared_ptr"* @"??0?$shared_ptr@H@std@@QEAA@XZ"(%"class.std::shared_ptr"* %0) #5, !dbg !2906
  %15 = load %"class.std::_Ref_count_obj2"*, %"class.std::_Ref_count_obj2"** %5, align 8, !dbg !2907
  %16 = bitcast %"class.std::_Ref_count_obj2"* %15 to %"class.std::_Ref_count_base"*, !dbg !2907
  %17 = load %"class.std::_Ref_count_obj2"*, %"class.std::_Ref_count_obj2"** %5, align 8, !dbg !2908
  %18 = getelementptr inbounds %"class.std::_Ref_count_obj2", %"class.std::_Ref_count_obj2"* %17, i32 0, i32 1, !dbg !2909
  %19 = bitcast %union.anon.9* %18 to %"struct.std::_Wrap"*, !dbg !2909
  %20 = getelementptr inbounds %"struct.std::_Wrap", %"struct.std::_Wrap"* %19, i32 0, i32 0, !dbg !2910
  %21 = call i32* @"??$addressof@H@std@@YAPEAHAEAH@Z"(i32* nonnull align 4 dereferenceable(4) %20) #5, !dbg !2911
  call void @"??$_Set_ptr_rep_and_enable_shared@H@?$shared_ptr@H@std@@AEAAXQEAHQEAV_Ref_count_base@1@@Z"(%"class.std::shared_ptr"* %0, i32* %21, %"class.std::_Ref_count_base"* %16) #5, !dbg !2912
  store i1 true, i1* %6, align 1, !dbg !2913
  %22 = load i1, i1* %6, align 1, !dbg !2914
  br i1 %22, label %26, label %25, !dbg !2914

23:                                               ; preds = %2
  %24 = cleanuppad within none [], !dbg !2900
  call void @"??3@YAXPEAX@Z"(i8* %8) #17 [ "funclet"(token %24) ], !dbg !2900
  cleanupret from %24 unwind to caller, !dbg !2900

25:                                               ; preds = %13
  call void @"??1?$shared_ptr@H@std@@QEAA@XZ"(%"class.std::shared_ptr"* %0) #5, !dbg !2914
  br label %26, !dbg !2914

26:                                               ; preds = %25, %13
  ret void, !dbg !2914
}

; Function Attrs: noinline optnone uwtable
define dso_local dllexport void @"?sharedMemoryTest@expression@test@@YAXXZ"() #0 personality i8* bitcast (i32 (...)* @__CxxFrameHandler3 to i8*) !dbg !2915 {
  %1 = alloca %"class.std::shared_ptr", align 8
  %2 = alloca %"class.std::basic_string", align 8
  %3 = alloca %"class.std::basic_string", align 8
  %4 = alloca %"class.std::basic_string", align 8
  %5 = alloca %"class.std::basic_string", align 8
  %6 = alloca %"class.std::basic_string", align 8
  %7 = alloca %"class.std::shared_ptr", align 8
  %8 = alloca %"class.std::shared_ptr", align 8
  %9 = alloca i8, align 1
  %10 = alloca %"class.std::basic_string", align 8
  %11 = alloca %"class.std::basic_string", align 8
  %12 = alloca %"class.std::basic_string", align 8
  %13 = alloca %"class.std::basic_string", align 8
  %14 = alloca %"class.std::basic_string", align 8
  %15 = alloca i32, align 4
  call void @"?returnShared@expression@test@@YA?AV?$shared_ptr@H@std@@XZ"(%"class.std::shared_ptr"* sret align 8 %1), !dbg !2916
  invoke void @llvm.eha.scope.begin()
          to label %16 unwind label %39, !dbg !2916

16:                                               ; preds = %0
  invoke void @llvm.eha.scope.end()
          to label %17 unwind label %39, !dbg !2916

17:                                               ; preds = %16
  call void @"??1?$shared_ptr@H@std@@QEAA@XZ"(%"class.std::shared_ptr"* %1) #5, !dbg !2916
  call void @llvm.dbg.declare(metadata %"class.std::basic_string"* %2, metadata !2917, metadata !DIExpression()), !dbg !2918
  %18 = call %"class.std::basic_string"* @"??0?$basic_string@DU?$char_traits@D@std@@V?$allocator@D@2@@std@@QEAA@QEBD@Z"(%"class.std::basic_string"* %2, i8* getelementptr inbounds ([145 x i8], [145 x i8]* @"??_C@_0JB@GCMHBBE@std?3?3shared_ptr?$DMClassWithDestruc@", i64 0, i64 0)), !dbg !2919
  invoke void @llvm.eha.scope.begin()
          to label %19 unwind label %110, !dbg !2920

19:                                               ; preds = %17
  %20 = invoke %"class.std::basic_string"* @"??0?$basic_string@DU?$char_traits@D@std@@V?$allocator@D@2@@std@@QEAA@AEBV01@@Z"(%"class.std::basic_string"* %5, %"class.std::basic_string"* nonnull align 8 dereferenceable(32) %2)
          to label %21 unwind label %110, !dbg !2921

21:                                               ; preds = %19
  invoke void @llvm.eha.scope.begin()
          to label %22 unwind label %47, !dbg !2921

22:                                               ; preds = %21
  %23 = invoke %"class.std::basic_string"* @"??0?$basic_string@DU?$char_traits@D@std@@V?$allocator@D@2@@std@@QEAA@QEBD@Z"(%"class.std::basic_string"* %6, i8* getelementptr inbounds ([94 x i8], [94 x i8]* @"??_C@_0FO@BMCOEJHP@?7?$CDdefine?5FAIL_TEST_IF_FALSE?$CIcond@", i64 0, i64 0))
          to label %24 unwind label %47, !dbg !2921

24:                                               ; preds = %22
  invoke void @llvm.eha.scope.begin()
          to label %25 unwind label %45, !dbg !2921

25:                                               ; preds = %24
  invoke void @"??$?HDU?$char_traits@D@std@@V?$allocator@D@1@@std@@YA?AV?$basic_string@DU?$char_traits@D@std@@V?$allocator@D@2@@0@$$QEAV10@0@Z"(%"class.std::basic_string"* sret align 8 %4, %"class.std::basic_string"* nonnull align 8 dereferenceable(32) %6, %"class.std::basic_string"* nonnull align 8 dereferenceable(32) %5)
          to label %26 unwind label %45, !dbg !2921

26:                                               ; preds = %25
  invoke void @llvm.eha.scope.begin()
          to label %27 unwind label %43, !dbg !2921

27:                                               ; preds = %26
  invoke void @"??$?HDU?$char_traits@D@std@@V?$allocator@D@1@@std@@YA?AV?$basic_string@DU?$char_traits@D@std@@V?$allocator@D@2@@0@$$QEAV10@QEBD@Z"(%"class.std::basic_string"* sret align 8 %3, %"class.std::basic_string"* nonnull align 8 dereferenceable(32) %4, i8* getelementptr inbounds ([31 x i8], [31 x i8]* @"??_C@_0BP@FJINOLPO@?$DLg_shouldPauseExecute?5?$DN?5false?$DL?$AA@", i64 0, i64 0))
          to label %28 unwind label %43, !dbg !2921

28:                                               ; preds = %27
  invoke void @llvm.eha.scope.begin()
          to label %29 unwind label %41, !dbg !2921

29:                                               ; preds = %28
  %30 = call nonnull align 8 dereferenceable(32) %"class.std::basic_string"* @"??4?$basic_string@DU?$char_traits@D@std@@V?$allocator@D@2@@std@@QEAAAEAV01@$$QEAV01@@Z"(%"class.std::basic_string"* @"?g_expr@@3V?$basic_string@DU?$char_traits@D@std@@V?$allocator@D@2@@std@@A", %"class.std::basic_string"* nonnull align 8 dereferenceable(32) %3) #5, !dbg !2921
  invoke void @llvm.eha.scope.end()
          to label %31 unwind label %41, !dbg !2921

31:                                               ; preds = %29
  call void @"??1?$basic_string@DU?$char_traits@D@std@@V?$allocator@D@2@@std@@QEAA@XZ"(%"class.std::basic_string"* %3) #5, !dbg !2921
  invoke void @llvm.eha.scope.end()
          to label %32 unwind label %43, !dbg !2921

32:                                               ; preds = %31
  call void @"??1?$basic_string@DU?$char_traits@D@std@@V?$allocator@D@2@@std@@QEAA@XZ"(%"class.std::basic_string"* %4) #5, !dbg !2921
  invoke void @llvm.eha.scope.end()
          to label %33 unwind label %45, !dbg !2921

33:                                               ; preds = %32
  call void @"??1?$basic_string@DU?$char_traits@D@std@@V?$allocator@D@2@@std@@QEAA@XZ"(%"class.std::basic_string"* %6) #5, !dbg !2921
  invoke void @llvm.eha.scope.end()
          to label %34 unwind label %47, !dbg !2921

34:                                               ; preds = %33
  call void @"??1?$basic_string@DU?$char_traits@D@std@@V?$allocator@D@2@@std@@QEAA@XZ"(%"class.std::basic_string"* %5) #5, !dbg !2921
  store i8 1, i8* @"?g_shouldPauseExecute@@3_NA", align 1, !dbg !2921
  store i8 1, i8* @"?g_notifyBp@@3_NA", align 1, !dbg !2921
  br label %35, !dbg !2921

35:                                               ; preds = %38, %34
  %36 = load i8, i8* @"?g_shouldPauseExecute@@3_NA", align 1, !dbg !2921
  %37 = trunc i8 %36 to i1, !dbg !2921
  br i1 %37, label %38, label %49, !dbg !2921

38:                                               ; preds = %35
  br label %35, !dbg !2921, !llvm.loop !2922

39:                                               ; preds = %16, %0
  %40 = cleanuppad within none [], !dbg !2916
  call void @"??1?$shared_ptr@H@std@@QEAA@XZ"(%"class.std::shared_ptr"* %1) #5 [ "funclet"(token %40) ], !dbg !2916
  cleanupret from %40 unwind to caller, !dbg !2916

41:                                               ; preds = %29, %28
  %42 = cleanuppad within none [], !dbg !2921
  call void @"??1?$basic_string@DU?$char_traits@D@std@@V?$allocator@D@2@@std@@QEAA@XZ"(%"class.std::basic_string"* %3) #5 [ "funclet"(token %42) ], !dbg !2921
  cleanupret from %42 unwind label %43, !dbg !2921

43:                                               ; preds = %31, %41, %27, %26
  %44 = cleanuppad within none [], !dbg !2921
  call void @"??1?$basic_string@DU?$char_traits@D@std@@V?$allocator@D@2@@std@@QEAA@XZ"(%"class.std::basic_string"* %4) #5 [ "funclet"(token %44) ], !dbg !2921
  cleanupret from %44 unwind label %45, !dbg !2921

45:                                               ; preds = %32, %43, %25, %24
  %46 = cleanuppad within none [], !dbg !2921
  call void @"??1?$basic_string@DU?$char_traits@D@std@@V?$allocator@D@2@@std@@QEAA@XZ"(%"class.std::basic_string"* %6) #5 [ "funclet"(token %46) ], !dbg !2921
  cleanupret from %46 unwind label %47, !dbg !2921

47:                                               ; preds = %33, %45, %22, %21
  %48 = cleanuppad within none [], !dbg !2921
  call void @"??1?$basic_string@DU?$char_traits@D@std@@V?$allocator@D@2@@std@@QEAA@XZ"(%"class.std::basic_string"* %5) #5 [ "funclet"(token %48) ], !dbg !2921
  cleanupret from %48 unwind label %110, !dbg !2921

49:                                               ; preds = %35
  %50 = load i32, i32* @"?g_counter@expression@test@@3HA", align 4, !dbg !2923
  %51 = icmp ne i32 %50, 0, !dbg !2923
  br i1 %51, label %53, label %52, !dbg !2925

52:                                               ; preds = %49
  call void @llvm.debugtrap(), !dbg !2926
  br label %53, !dbg !2926

53:                                               ; preds = %52, %49
  %54 = invoke i32 (i8*, ...) @printf(i8* getelementptr inbounds ([3 x i8], [3 x i8]* @"??_C@_02DPKJAMEF@?$CFd?$AA@", i64 0, i64 0), i32 5)
          to label %55 unwind label %110, !dbg !2928

55:                                               ; preds = %53
  call void @llvm.dbg.declare(metadata %"class.std::shared_ptr"* %7, metadata !2929, metadata !DIExpression()), !dbg !2930
  %56 = call %"class.std::shared_ptr"* @"??0?$shared_ptr@H@std@@QEAA@XZ"(%"class.std::shared_ptr"* %7) #5, !dbg !2930
  invoke void @llvm.eha.scope.begin()
          to label %57 unwind label %108, !dbg !2931

57:                                               ; preds = %55
  call void @llvm.dbg.declare(metadata %"class.std::shared_ptr"* %8, metadata !2932, metadata !DIExpression()), !dbg !2934
  %58 = call %"class.std::shared_ptr"* @"??0?$shared_ptr@H@std@@QEAA@AEBV01@@Z"(%"class.std::shared_ptr"* %8, %"class.std::shared_ptr"* nonnull align 8 dereferenceable(16) %7) #5, !dbg !2935
  invoke void @llvm.eha.scope.begin()
          to label %59 unwind label %85, !dbg !2936

59:                                               ; preds = %57
  call void @llvm.dbg.declare(metadata i8* %9, metadata !2937, metadata !DIExpression()), !dbg !2938
  %60 = call zeroext i1 @"??$?8HH@std@@YA_NAEBV?$shared_ptr@H@0@0@Z"(%"class.std::shared_ptr"* nonnull align 8 dereferenceable(16) %8, %"class.std::shared_ptr"* nonnull align 8 dereferenceable(16) %8) #5, !dbg !2939
  %61 = zext i1 %60 to i8, !dbg !2938
  store i8 %61, i8* %9, align 1, !dbg !2938
  invoke void @llvm.eha.scope.end()
          to label %62 unwind label %85, !dbg !2940

62:                                               ; preds = %59
  call void @"??1?$shared_ptr@H@std@@QEAA@XZ"(%"class.std::shared_ptr"* %8) #5, !dbg !2940
  call void @llvm.dbg.declare(metadata %"class.std::basic_string"* %10, metadata !2941, metadata !DIExpression()), !dbg !2942
  %63 = invoke %"class.std::basic_string"* @"??0?$basic_string@DU?$char_traits@D@std@@V?$allocator@D@2@@std@@QEAA@QEBD@Z"(%"class.std::basic_string"* %10, i8* getelementptr inbounds ([295 x i8], [295 x i8]* @"??_C@_0BCH@HHLLNHGI@a?4reset?$CI?$CJ?$DLauto?5f?5?$DN?5a?$DLFAIL_TEST_I@", i64 0, i64 0))
          to label %64 unwind label %108, !dbg !2943

64:                                               ; preds = %62
  invoke void @llvm.eha.scope.begin()
          to label %65 unwind label %106, !dbg !2944

65:                                               ; preds = %64
  %66 = invoke %"class.std::basic_string"* @"??0?$basic_string@DU?$char_traits@D@std@@V?$allocator@D@2@@std@@QEAA@AEBV01@@Z"(%"class.std::basic_string"* %13, %"class.std::basic_string"* nonnull align 8 dereferenceable(32) %10)
          to label %67 unwind label %106, !dbg !2945

67:                                               ; preds = %65
  invoke void @llvm.eha.scope.begin()
          to label %68 unwind label %93, !dbg !2945

68:                                               ; preds = %67
  %69 = invoke %"class.std::basic_string"* @"??0?$basic_string@DU?$char_traits@D@std@@V?$allocator@D@2@@std@@QEAA@QEBD@Z"(%"class.std::basic_string"* %14, i8* getelementptr inbounds ([94 x i8], [94 x i8]* @"??_C@_0FO@BMCOEJHP@?7?$CDdefine?5FAIL_TEST_IF_FALSE?$CIcond@", i64 0, i64 0))
          to label %70 unwind label %93, !dbg !2945

70:                                               ; preds = %68
  invoke void @llvm.eha.scope.begin()
          to label %71 unwind label %91, !dbg !2945

71:                                               ; preds = %70
  invoke void @"??$?HDU?$char_traits@D@std@@V?$allocator@D@1@@std@@YA?AV?$basic_string@DU?$char_traits@D@std@@V?$allocator@D@2@@0@$$QEAV10@0@Z"(%"class.std::basic_string"* sret align 8 %12, %"class.std::basic_string"* nonnull align 8 dereferenceable(32) %14, %"class.std::basic_string"* nonnull align 8 dereferenceable(32) %13)
          to label %72 unwind label %91, !dbg !2945

72:                                               ; preds = %71
  invoke void @llvm.eha.scope.begin()
          to label %73 unwind label %89, !dbg !2945

73:                                               ; preds = %72
  invoke void @"??$?HDU?$char_traits@D@std@@V?$allocator@D@1@@std@@YA?AV?$basic_string@DU?$char_traits@D@std@@V?$allocator@D@2@@0@$$QEAV10@QEBD@Z"(%"class.std::basic_string"* sret align 8 %11, %"class.std::basic_string"* nonnull align 8 dereferenceable(32) %12, i8* getelementptr inbounds ([31 x i8], [31 x i8]* @"??_C@_0BP@FJINOLPO@?$DLg_shouldPauseExecute?5?$DN?5false?$DL?$AA@", i64 0, i64 0))
          to label %74 unwind label %89, !dbg !2945

74:                                               ; preds = %73
  invoke void @llvm.eha.scope.begin()
          to label %75 unwind label %87, !dbg !2945

75:                                               ; preds = %74
  %76 = call nonnull align 8 dereferenceable(32) %"class.std::basic_string"* @"??4?$basic_string@DU?$char_traits@D@std@@V?$allocator@D@2@@std@@QEAAAEAV01@$$QEAV01@@Z"(%"class.std::basic_string"* @"?g_expr@@3V?$basic_string@DU?$char_traits@D@std@@V?$allocator@D@2@@std@@A", %"class.std::basic_string"* nonnull align 8 dereferenceable(32) %11) #5, !dbg !2945
  invoke void @llvm.eha.scope.end()
          to label %77 unwind label %87, !dbg !2945

77:                                               ; preds = %75
  call void @"??1?$basic_string@DU?$char_traits@D@std@@V?$allocator@D@2@@std@@QEAA@XZ"(%"class.std::basic_string"* %11) #5, !dbg !2945
  invoke void @llvm.eha.scope.end()
          to label %78 unwind label %89, !dbg !2945

78:                                               ; preds = %77
  call void @"??1?$basic_string@DU?$char_traits@D@std@@V?$allocator@D@2@@std@@QEAA@XZ"(%"class.std::basic_string"* %12) #5, !dbg !2945
  invoke void @llvm.eha.scope.end()
          to label %79 unwind label %91, !dbg !2945

79:                                               ; preds = %78
  call void @"??1?$basic_string@DU?$char_traits@D@std@@V?$allocator@D@2@@std@@QEAA@XZ"(%"class.std::basic_string"* %14) #5, !dbg !2945
  invoke void @llvm.eha.scope.end()
          to label %80 unwind label %93, !dbg !2945

80:                                               ; preds = %79
  call void @"??1?$basic_string@DU?$char_traits@D@std@@V?$allocator@D@2@@std@@QEAA@XZ"(%"class.std::basic_string"* %13) #5, !dbg !2945
  store i8 1, i8* @"?g_shouldPauseExecute@@3_NA", align 1, !dbg !2945
  store i8 1, i8* @"?g_notifyBp@@3_NA", align 1, !dbg !2945
  br label %81, !dbg !2945

81:                                               ; preds = %84, %80
  %82 = load i8, i8* @"?g_shouldPauseExecute@@3_NA", align 1, !dbg !2945
  %83 = trunc i8 %82 to i1, !dbg !2945
  br i1 %83, label %84, label %95, !dbg !2945

84:                                               ; preds = %81
  br label %81, !dbg !2945, !llvm.loop !2946

85:                                               ; preds = %59, %57
  %86 = cleanuppad within none [], !dbg !2940
  call void @"??1?$shared_ptr@H@std@@QEAA@XZ"(%"class.std::shared_ptr"* %8) #5 [ "funclet"(token %86) ], !dbg !2940
  cleanupret from %86 unwind label %108, !dbg !2940

87:                                               ; preds = %75, %74
  %88 = cleanuppad within none [], !dbg !2945
  call void @"??1?$basic_string@DU?$char_traits@D@std@@V?$allocator@D@2@@std@@QEAA@XZ"(%"class.std::basic_string"* %11) #5 [ "funclet"(token %88) ], !dbg !2945
  cleanupret from %88 unwind label %89, !dbg !2945

89:                                               ; preds = %77, %87, %73, %72
  %90 = cleanuppad within none [], !dbg !2945
  call void @"??1?$basic_string@DU?$char_traits@D@std@@V?$allocator@D@2@@std@@QEAA@XZ"(%"class.std::basic_string"* %12) #5 [ "funclet"(token %90) ], !dbg !2945
  cleanupret from %90 unwind label %91, !dbg !2945

91:                                               ; preds = %78, %89, %71, %70
  %92 = cleanuppad within none [], !dbg !2945
  call void @"??1?$basic_string@DU?$char_traits@D@std@@V?$allocator@D@2@@std@@QEAA@XZ"(%"class.std::basic_string"* %14) #5 [ "funclet"(token %92) ], !dbg !2945
  cleanupret from %92 unwind label %93, !dbg !2945

93:                                               ; preds = %79, %91, %68, %67
  %94 = cleanuppad within none [], !dbg !2945
  call void @"??1?$basic_string@DU?$char_traits@D@std@@V?$allocator@D@2@@std@@QEAA@XZ"(%"class.std::basic_string"* %13) #5 [ "funclet"(token %94) ], !dbg !2945
  cleanupret from %94 unwind label %106, !dbg !2945

95:                                               ; preds = %81
  call void @llvm.dbg.declare(metadata i32* %15, metadata !2947, metadata !DIExpression()), !dbg !2948
  %96 = bitcast %"class.std::shared_ptr"* %7 to %"class.std::_Ptr_base"*, !dbg !2949
  %97 = call i32 @"?use_count@?$_Ptr_base@H@std@@QEBAJXZ"(%"class.std::_Ptr_base"* %96) #5, !dbg !2950
  store i32 %97, i32* %15, align 4, !dbg !2948
  %98 = call nonnull align 4 dereferenceable(4) i32* @"??$?DH$0A@@?$shared_ptr@H@std@@QEBAAEAHXZ"(%"class.std::shared_ptr"* %7) #5, !dbg !2951
  %99 = load i32, i32* %98, align 4, !dbg !2951
  %100 = icmp eq i32 %99, 5, !dbg !2951
  br i1 %100, label %102, label %101, !dbg !2953

101:                                              ; preds = %95
  call void @llvm.debugtrap(), !dbg !2954
  br label %102, !dbg !2954

102:                                              ; preds = %101, %95
  invoke void @llvm.eha.scope.end()
          to label %103 unwind label %106, !dbg !2956

103:                                              ; preds = %102
  call void @"??1?$basic_string@DU?$char_traits@D@std@@V?$allocator@D@2@@std@@QEAA@XZ"(%"class.std::basic_string"* %10) #5, !dbg !2956
  invoke void @llvm.eha.scope.end()
          to label %104 unwind label %108, !dbg !2956

104:                                              ; preds = %103
  call void @"??1?$shared_ptr@H@std@@QEAA@XZ"(%"class.std::shared_ptr"* %7) #5, !dbg !2956
  invoke void @llvm.eha.scope.end()
          to label %105 unwind label %110, !dbg !2956

105:                                              ; preds = %104
  call void @"??1?$basic_string@DU?$char_traits@D@std@@V?$allocator@D@2@@std@@QEAA@XZ"(%"class.std::basic_string"* %2) #5, !dbg !2956
  ret void, !dbg !2956

106:                                              ; preds = %102, %93, %65, %64
  %107 = cleanuppad within none [], !dbg !2956
  call void @"??1?$basic_string@DU?$char_traits@D@std@@V?$allocator@D@2@@std@@QEAA@XZ"(%"class.std::basic_string"* %10) #5 [ "funclet"(token %107) ], !dbg !2956
  cleanupret from %107 unwind label %108, !dbg !2956

108:                                              ; preds = %103, %106, %62, %85, %55
  %109 = cleanuppad within none [], !dbg !2956
  call void @"??1?$shared_ptr@H@std@@QEAA@XZ"(%"class.std::shared_ptr"* %7) #5 [ "funclet"(token %109) ], !dbg !2956
  cleanupret from %109 unwind label %110, !dbg !2956

110:                                              ; preds = %104, %108, %53, %47, %19, %17
  %111 = cleanuppad within none [], !dbg !2956
  call void @"??1?$basic_string@DU?$char_traits@D@std@@V?$allocator@D@2@@std@@QEAA@XZ"(%"class.std::basic_string"* %2) #5 [ "funclet"(token %111) ], !dbg !2956
  cleanupret from %111 unwind to caller, !dbg !2956
}

; Function Attrs: noinline nounwind optnone uwtable
define linkonce_odr dso_local void @"??1?$shared_ptr@H@std@@QEAA@XZ"(%"class.std::shared_ptr"* %0) unnamed_addr #1 comdat align 2 !dbg !2957 {
  %2 = alloca %"class.std::shared_ptr"*, align 8
  store %"class.std::shared_ptr"* %0, %"class.std::shared_ptr"** %2, align 8
  call void @llvm.dbg.declare(metadata %"class.std::shared_ptr"** %2, metadata !2958, metadata !DIExpression()), !dbg !2960
  %3 = load %"class.std::shared_ptr"*, %"class.std::shared_ptr"** %2, align 8
  %4 = bitcast %"class.std::shared_ptr"* %3 to %"class.std::_Ptr_base"*, !dbg !2961
  call void @"?_Decref@?$_Ptr_base@H@std@@IEAAXXZ"(%"class.std::_Ptr_base"* %4) #5, !dbg !2961
  ret void, !dbg !2963
}

; Function Attrs: nobuiltin noinline optnone uwtable
define linkonce_odr dso_local i32 @printf(i8* %0, ...) #8 comdat !dbg !1360 {
  %2 = alloca i8*, align 8
  %3 = alloca i32, align 4
  %4 = alloca i8*, align 8
  %5 = alloca %struct.__vcrt_assert_va_start_is_not_reference, align 1
  store i8* %0, i8** %2, align 8
  call void @llvm.dbg.declare(metadata i8** %2, metadata !2964, metadata !DIExpression()), !dbg !2965
  call void @llvm.dbg.declare(metadata i32* %3, metadata !2966, metadata !DIExpression()), !dbg !2967
  call void @llvm.dbg.declare(metadata i8** %4, metadata !2968, metadata !DIExpression()), !dbg !2969
  %6 = bitcast i8** %4 to i8*, !dbg !2970
  call void @llvm.va_start(i8* %6), !dbg !2970
  %7 = load i8*, i8** %4, align 8, !dbg !2971
  %8 = load i8*, i8** %2, align 8, !dbg !2972
  %9 = call %struct._iobuf* @__acrt_iob_func(i32 1), !dbg !2973
  %10 = call i32 @_vfprintf_l(%struct._iobuf* %9, i8* %8, %struct.__crt_locale_pointers* null, i8* %7), !dbg !2974
  store i32 %10, i32* %3, align 4, !dbg !2975
  store i8* null, i8** %4, align 8, !dbg !2976
  %11 = load i32, i32* %3, align 4, !dbg !2977
  ret i32 %11, !dbg !2978
}

; Function Attrs: noinline nounwind optnone uwtable
define linkonce_odr dso_local %"class.std::shared_ptr"* @"??0?$shared_ptr@H@std@@QEAA@XZ"(%"class.std::shared_ptr"* returned %0) unnamed_addr #1 comdat align 2 !dbg !2979 {
  %2 = alloca %"class.std::shared_ptr"*, align 8
  store %"class.std::shared_ptr"* %0, %"class.std::shared_ptr"** %2, align 8
  call void @llvm.dbg.declare(metadata %"class.std::shared_ptr"** %2, metadata !2980, metadata !DIExpression()), !dbg !2981
  %3 = load %"class.std::shared_ptr"*, %"class.std::shared_ptr"** %2, align 8
  %4 = bitcast %"class.std::shared_ptr"* %3 to %"class.std::_Ptr_base"*, !dbg !2982
  %5 = call %"class.std::_Ptr_base"* @"??0?$_Ptr_base@H@std@@IEAA@XZ"(%"class.std::_Ptr_base"* %4) #5, !dbg !2983
  ret %"class.std::shared_ptr"* %3, !dbg !2982
}

; Function Attrs: noinline nounwind optnone uwtable
define linkonce_odr dso_local %"class.std::shared_ptr"* @"??0?$shared_ptr@H@std@@QEAA@AEBV01@@Z"(%"class.std::shared_ptr"* returned %0, %"class.std::shared_ptr"* nonnull align 8 dereferenceable(16) %1) unnamed_addr #1 comdat align 2 !dbg !2984 {
  %3 = alloca %"class.std::shared_ptr"*, align 8
  %4 = alloca %"class.std::shared_ptr"*, align 8
  store %"class.std::shared_ptr"* %1, %"class.std::shared_ptr"** %3, align 8
  call void @llvm.dbg.declare(metadata %"class.std::shared_ptr"** %3, metadata !2985, metadata !DIExpression()), !dbg !2986
  store %"class.std::shared_ptr"* %0, %"class.std::shared_ptr"** %4, align 8
  call void @llvm.dbg.declare(metadata %"class.std::shared_ptr"** %4, metadata !2987, metadata !DIExpression()), !dbg !2988
  %5 = load %"class.std::shared_ptr"*, %"class.std::shared_ptr"** %4, align 8
  %6 = bitcast %"class.std::shared_ptr"* %5 to %"class.std::_Ptr_base"*, !dbg !2989
  %7 = call %"class.std::_Ptr_base"* @"??0?$_Ptr_base@H@std@@IEAA@XZ"(%"class.std::_Ptr_base"* %6) #5, !dbg !2990
  %8 = bitcast %"class.std::shared_ptr"* %5 to %"class.std::_Ptr_base"*, !dbg !2991
  %9 = load %"class.std::shared_ptr"*, %"class.std::shared_ptr"** %3, align 8, !dbg !2993
  call void @"??$_Copy_construct_from@H@?$_Ptr_base@H@std@@IEAAXAEBV?$shared_ptr@H@1@@Z"(%"class.std::_Ptr_base"* %8, %"class.std::shared_ptr"* nonnull align 8 dereferenceable(16) %9) #5, !dbg !2991
  ret %"class.std::shared_ptr"* %5, !dbg !2994
}

; Function Attrs: noinline nounwind optnone uwtable
define linkonce_odr dso_local zeroext i1 @"??$?8HH@std@@YA_NAEBV?$shared_ptr@H@0@0@Z"(%"class.std::shared_ptr"* nonnull align 8 dereferenceable(16) %0, %"class.std::shared_ptr"* nonnull align 8 dereferenceable(16) %1) #1 comdat !dbg !2995 {
  %3 = alloca %"class.std::shared_ptr"*, align 8
  %4 = alloca %"class.std::shared_ptr"*, align 8
  store %"class.std::shared_ptr"* %1, %"class.std::shared_ptr"** %3, align 8
  call void @llvm.dbg.declare(metadata %"class.std::shared_ptr"** %3, metadata !2998, metadata !DIExpression()), !dbg !2999
  store %"class.std::shared_ptr"* %0, %"class.std::shared_ptr"** %4, align 8
  call void @llvm.dbg.declare(metadata %"class.std::shared_ptr"** %4, metadata !3000, metadata !DIExpression()), !dbg !3001
  %5 = load %"class.std::shared_ptr"*, %"class.std::shared_ptr"** %4, align 8, !dbg !3002
  %6 = bitcast %"class.std::shared_ptr"* %5 to %"class.std::_Ptr_base"*, !dbg !3002
  %7 = call i32* @"?get@?$_Ptr_base@H@std@@IEBAPEAHXZ"(%"class.std::_Ptr_base"* %6) #5, !dbg !3003
  %8 = load %"class.std::shared_ptr"*, %"class.std::shared_ptr"** %3, align 8, !dbg !3004
  %9 = bitcast %"class.std::shared_ptr"* %8 to %"class.std::_Ptr_base"*, !dbg !3004
  %10 = call i32* @"?get@?$_Ptr_base@H@std@@IEBAPEAHXZ"(%"class.std::_Ptr_base"* %9) #5, !dbg !3005
  %11 = icmp eq i32* %7, %10, !dbg !3006
  ret i1 %11, !dbg !3007
}

; Function Attrs: noinline nounwind optnone uwtable
define linkonce_odr dso_local i32 @"?use_count@?$_Ptr_base@H@std@@QEBAJXZ"(%"class.std::_Ptr_base"* %0) #1 comdat align 2 !dbg !3008 {
  %2 = alloca %"class.std::_Ptr_base"*, align 8
  store %"class.std::_Ptr_base"* %0, %"class.std::_Ptr_base"** %2, align 8
  call void @llvm.dbg.declare(metadata %"class.std::_Ptr_base"** %2, metadata !3009, metadata !DIExpression()), !dbg !3011
  %3 = load %"class.std::_Ptr_base"*, %"class.std::_Ptr_base"** %2, align 8
  %4 = getelementptr inbounds %"class.std::_Ptr_base", %"class.std::_Ptr_base"* %3, i32 0, i32 1, !dbg !3012
  %5 = load %"class.std::_Ref_count_base"*, %"class.std::_Ref_count_base"** %4, align 8, !dbg !3012
  %6 = icmp ne %"class.std::_Ref_count_base"* %5, null, !dbg !3012
  br i1 %6, label %7, label %11, !dbg !3012

7:                                                ; preds = %1
  %8 = getelementptr inbounds %"class.std::_Ptr_base", %"class.std::_Ptr_base"* %3, i32 0, i32 1, !dbg !3013
  %9 = load %"class.std::_Ref_count_base"*, %"class.std::_Ref_count_base"** %8, align 8, !dbg !3013
  %10 = call i32 @"?_Use_count@_Ref_count_base@std@@QEBAJXZ"(%"class.std::_Ref_count_base"* %9) #5, !dbg !3014
  br label %12, !dbg !3012

11:                                               ; preds = %1
  br label %12, !dbg !3012

12:                                               ; preds = %11, %7
  %13 = phi i32 [ %10, %7 ], [ 0, %11 ], !dbg !3012
  ret i32 %13, !dbg !3015
}

; Function Attrs: noinline nounwind optnone uwtable
define linkonce_odr dso_local nonnull align 4 dereferenceable(4) i32* @"??$?DH$0A@@?$shared_ptr@H@std@@QEBAAEAHXZ"(%"class.std::shared_ptr"* %0) #1 comdat align 2 !dbg !3016 {
  %2 = alloca %"class.std::shared_ptr"*, align 8
  store %"class.std::shared_ptr"* %0, %"class.std::shared_ptr"** %2, align 8
  call void @llvm.dbg.declare(metadata %"class.std::shared_ptr"** %2, metadata !3020, metadata !DIExpression()), !dbg !3022
  %3 = load %"class.std::shared_ptr"*, %"class.std::shared_ptr"** %2, align 8
  %4 = bitcast %"class.std::shared_ptr"* %3 to %"class.std::_Ptr_base"*, !dbg !3023
  %5 = call i32* @"?get@?$_Ptr_base@H@std@@IEBAPEAHXZ"(%"class.std::_Ptr_base"* %4) #5, !dbg !3023
  ret i32* %5, !dbg !3024
}

; Function Attrs: noinline optnone uwtable
define dso_local dllexport void @"?uniquePtrTest@expression@test@@YAXXZ"() #0 personality i8* bitcast (i32 (...)* @__CxxFrameHandler3 to i8*) !dbg !3025 {
  %1 = alloca %"class.std::unique_ptr.2", align 8
  %2 = alloca %"class.std::unique_ptr.2", align 8
  %3 = alloca %"class.std::basic_string", align 8
  %4 = alloca %"class.std::basic_string", align 8
  %5 = alloca %"class.std::basic_string", align 8
  %6 = alloca %"class.std::basic_string", align 8
  %7 = alloca %"class.std::basic_string", align 8
  %8 = alloca %"class.std::unique_ptr", align 8
  %9 = alloca %"class.std::basic_string", align 8
  %10 = alloca %"class.std::basic_string", align 8
  %11 = alloca %"class.std::basic_string", align 8
  %12 = alloca %"class.std::basic_string", align 8
  %13 = alloca %"class.std::basic_string", align 8
  call void @llvm.dbg.declare(metadata %"class.std::unique_ptr.2"* %1, metadata !3026, metadata !DIExpression()), !dbg !3112
  %14 = call %"class.std::unique_ptr.2"* @"??$?0U?$default_delete@H@std@@$0A@@?$unique_ptr@HU?$default_delete@H@std@@@std@@QEAA@XZ"(%"class.std::unique_ptr.2"* %1) #5, !dbg !3112
  invoke void @llvm.eha.scope.begin()
          to label %15 unwind label %104, !dbg !3113

15:                                               ; preds = %0
  call void @llvm.dbg.declare(metadata %"class.std::unique_ptr.2"* %2, metadata !3114, metadata !DIExpression()), !dbg !3115
  %16 = call %"class.std::unique_ptr.2"* @"??$?0U?$default_delete@H@std@@$0A@@?$unique_ptr@HU?$default_delete@H@std@@@std@@QEAA@XZ"(%"class.std::unique_ptr.2"* %2) #5, !dbg !3115
  invoke void @llvm.eha.scope.begin()
          to label %17 unwind label %102, !dbg !3116

17:                                               ; preds = %15
  call void @llvm.dbg.declare(metadata %"class.std::basic_string"* %3, metadata !3117, metadata !DIExpression()), !dbg !3118
  %18 = invoke %"class.std::basic_string"* @"??0?$basic_string@DU?$char_traits@D@std@@V?$allocator@D@2@@std@@QEAA@QEBD@Z"(%"class.std::basic_string"* %3, i8* getelementptr inbounds ([179 x i8], [179 x i8]* @"??_C@_0LD@NMMKOFBP@a?4reset?$CI?$CJ?$DLstd?3?3unique_ptr?$DMint?$DO?5f@", i64 0, i64 0))
          to label %19 unwind label %102, !dbg !3119

19:                                               ; preds = %17
  invoke void @llvm.eha.scope.begin()
          to label %20 unwind label %100, !dbg !3120

20:                                               ; preds = %19
  %21 = invoke %"class.std::basic_string"* @"??0?$basic_string@DU?$char_traits@D@std@@V?$allocator@D@2@@std@@QEAA@AEBV01@@Z"(%"class.std::basic_string"* %6, %"class.std::basic_string"* nonnull align 8 dereferenceable(32) %3)
          to label %22 unwind label %100, !dbg !3121

22:                                               ; preds = %20
  invoke void @llvm.eha.scope.begin()
          to label %23 unwind label %46, !dbg !3121

23:                                               ; preds = %22
  %24 = invoke %"class.std::basic_string"* @"??0?$basic_string@DU?$char_traits@D@std@@V?$allocator@D@2@@std@@QEAA@QEBD@Z"(%"class.std::basic_string"* %7, i8* getelementptr inbounds ([94 x i8], [94 x i8]* @"??_C@_0FO@BMCOEJHP@?7?$CDdefine?5FAIL_TEST_IF_FALSE?$CIcond@", i64 0, i64 0))
          to label %25 unwind label %46, !dbg !3121

25:                                               ; preds = %23
  invoke void @llvm.eha.scope.begin()
          to label %26 unwind label %44, !dbg !3121

26:                                               ; preds = %25
  invoke void @"??$?HDU?$char_traits@D@std@@V?$allocator@D@1@@std@@YA?AV?$basic_string@DU?$char_traits@D@std@@V?$allocator@D@2@@0@$$QEAV10@0@Z"(%"class.std::basic_string"* sret align 8 %5, %"class.std::basic_string"* nonnull align 8 dereferenceable(32) %7, %"class.std::basic_string"* nonnull align 8 dereferenceable(32) %6)
          to label %27 unwind label %44, !dbg !3121

27:                                               ; preds = %26
  invoke void @llvm.eha.scope.begin()
          to label %28 unwind label %42, !dbg !3121

28:                                               ; preds = %27
  invoke void @"??$?HDU?$char_traits@D@std@@V?$allocator@D@1@@std@@YA?AV?$basic_string@DU?$char_traits@D@std@@V?$allocator@D@2@@0@$$QEAV10@QEBD@Z"(%"class.std::basic_string"* sret align 8 %4, %"class.std::basic_string"* nonnull align 8 dereferenceable(32) %5, i8* getelementptr inbounds ([31 x i8], [31 x i8]* @"??_C@_0BP@FJINOLPO@?$DLg_shouldPauseExecute?5?$DN?5false?$DL?$AA@", i64 0, i64 0))
          to label %29 unwind label %42, !dbg !3121

29:                                               ; preds = %28
  invoke void @llvm.eha.scope.begin()
          to label %30 unwind label %40, !dbg !3121

30:                                               ; preds = %29
  %31 = call nonnull align 8 dereferenceable(32) %"class.std::basic_string"* @"??4?$basic_string@DU?$char_traits@D@std@@V?$allocator@D@2@@std@@QEAAAEAV01@$$QEAV01@@Z"(%"class.std::basic_string"* @"?g_expr@@3V?$basic_string@DU?$char_traits@D@std@@V?$allocator@D@2@@std@@A", %"class.std::basic_string"* nonnull align 8 dereferenceable(32) %4) #5, !dbg !3121
  invoke void @llvm.eha.scope.end()
          to label %32 unwind label %40, !dbg !3121

32:                                               ; preds = %30
  call void @"??1?$basic_string@DU?$char_traits@D@std@@V?$allocator@D@2@@std@@QEAA@XZ"(%"class.std::basic_string"* %4) #5, !dbg !3121
  invoke void @llvm.eha.scope.end()
          to label %33 unwind label %42, !dbg !3121

33:                                               ; preds = %32
  call void @"??1?$basic_string@DU?$char_traits@D@std@@V?$allocator@D@2@@std@@QEAA@XZ"(%"class.std::basic_string"* %5) #5, !dbg !3121
  invoke void @llvm.eha.scope.end()
          to label %34 unwind label %44, !dbg !3121

34:                                               ; preds = %33
  call void @"??1?$basic_string@DU?$char_traits@D@std@@V?$allocator@D@2@@std@@QEAA@XZ"(%"class.std::basic_string"* %7) #5, !dbg !3121
  invoke void @llvm.eha.scope.end()
          to label %35 unwind label %46, !dbg !3121

35:                                               ; preds = %34
  call void @"??1?$basic_string@DU?$char_traits@D@std@@V?$allocator@D@2@@std@@QEAA@XZ"(%"class.std::basic_string"* %6) #5, !dbg !3121
  store i8 1, i8* @"?g_shouldPauseExecute@@3_NA", align 1, !dbg !3121
  store i8 1, i8* @"?g_notifyBp@@3_NA", align 1, !dbg !3121
  br label %36, !dbg !3121

36:                                               ; preds = %39, %35
  %37 = load i8, i8* @"?g_shouldPauseExecute@@3_NA", align 1, !dbg !3121
  %38 = trunc i8 %37 to i1, !dbg !3121
  br i1 %38, label %39, label %48, !dbg !3121

39:                                               ; preds = %36
  br label %36, !dbg !3121, !llvm.loop !3122

40:                                               ; preds = %30, %29
  %41 = cleanuppad within none [], !dbg !3121
  call void @"??1?$basic_string@DU?$char_traits@D@std@@V?$allocator@D@2@@std@@QEAA@XZ"(%"class.std::basic_string"* %4) #5 [ "funclet"(token %41) ], !dbg !3121
  cleanupret from %41 unwind label %42, !dbg !3121

42:                                               ; preds = %32, %40, %28, %27
  %43 = cleanuppad within none [], !dbg !3121
  call void @"??1?$basic_string@DU?$char_traits@D@std@@V?$allocator@D@2@@std@@QEAA@XZ"(%"class.std::basic_string"* %5) #5 [ "funclet"(token %43) ], !dbg !3121
  cleanupret from %43 unwind label %44, !dbg !3121

44:                                               ; preds = %33, %42, %26, %25
  %45 = cleanuppad within none [], !dbg !3121
  call void @"??1?$basic_string@DU?$char_traits@D@std@@V?$allocator@D@2@@std@@QEAA@XZ"(%"class.std::basic_string"* %7) #5 [ "funclet"(token %45) ], !dbg !3121
  cleanupret from %45 unwind label %46, !dbg !3121

46:                                               ; preds = %34, %44, %23, %22
  %47 = cleanuppad within none [], !dbg !3121
  call void @"??1?$basic_string@DU?$char_traits@D@std@@V?$allocator@D@2@@std@@QEAA@XZ"(%"class.std::basic_string"* %6) #5 [ "funclet"(token %47) ], !dbg !3121
  cleanupret from %47 unwind label %100, !dbg !3121

48:                                               ; preds = %36
  %49 = call nonnull align 4 dereferenceable(4) i32* @"??D?$unique_ptr@HU?$default_delete@H@std@@@std@@QEBAAEAHXZ"(%"class.std::unique_ptr.2"* %1) #5, !dbg !3123
  %50 = load i32, i32* %49, align 4, !dbg !3123
  %51 = icmp eq i32 %50, 5, !dbg !3123
  br i1 %51, label %53, label %52, !dbg !3125

52:                                               ; preds = %48
  call void @llvm.debugtrap(), !dbg !3126
  br label %53, !dbg !3126

53:                                               ; preds = %52, %48
  invoke void @"?retFunc@@YA?AV?$unique_ptr@VClassWithDestructor@@U?$default_delete@VClassWithDestructor@@@std@@@std@@XZ"(%"class.std::unique_ptr"* sret align 8 %8)
          to label %54 unwind label %100, !dbg !3128

54:                                               ; preds = %53
  invoke void @llvm.eha.scope.begin()
          to label %55 unwind label %79, !dbg !3128

55:                                               ; preds = %54
  invoke void @llvm.eha.scope.end()
          to label %56 unwind label %79, !dbg !3128

56:                                               ; preds = %55
  call void @"??1?$unique_ptr@VClassWithDestructor@@U?$default_delete@VClassWithDestructor@@@std@@@std@@QEAA@XZ"(%"class.std::unique_ptr"* %8) #5, !dbg !3128
  store i32 0, i32* @"?g_counter@expression@test@@3HA", align 4, !dbg !3129
  call void @llvm.dbg.declare(metadata %"class.std::basic_string"* %9, metadata !3130, metadata !DIExpression()), !dbg !3131
  %57 = invoke %"class.std::basic_string"* @"??0?$basic_string@DU?$char_traits@D@std@@V?$allocator@D@2@@std@@QEAA@QEBD@Z"(%"class.std::basic_string"* %9, i8* getelementptr inbounds ([247 x i8], [247 x i8]* @"??_C@_0PH@HEHHHG@auto?5aa?5?$DN?5ClassWithDestructor?$CI2?$CJ@", i64 0, i64 0))
          to label %58 unwind label %100, !dbg !3132

58:                                               ; preds = %56
  invoke void @llvm.eha.scope.begin()
          to label %59 unwind label %98, !dbg !3133

59:                                               ; preds = %58
  %60 = invoke %"class.std::basic_string"* @"??0?$basic_string@DU?$char_traits@D@std@@V?$allocator@D@2@@std@@QEAA@AEBV01@@Z"(%"class.std::basic_string"* %12, %"class.std::basic_string"* nonnull align 8 dereferenceable(32) %9)
          to label %61 unwind label %98, !dbg !3134

61:                                               ; preds = %59
  invoke void @llvm.eha.scope.begin()
          to label %62 unwind label %87, !dbg !3134

62:                                               ; preds = %61
  %63 = invoke %"class.std::basic_string"* @"??0?$basic_string@DU?$char_traits@D@std@@V?$allocator@D@2@@std@@QEAA@QEBD@Z"(%"class.std::basic_string"* %13, i8* getelementptr inbounds ([94 x i8], [94 x i8]* @"??_C@_0FO@BMCOEJHP@?7?$CDdefine?5FAIL_TEST_IF_FALSE?$CIcond@", i64 0, i64 0))
          to label %64 unwind label %87, !dbg !3134

64:                                               ; preds = %62
  invoke void @llvm.eha.scope.begin()
          to label %65 unwind label %85, !dbg !3134

65:                                               ; preds = %64
  invoke void @"??$?HDU?$char_traits@D@std@@V?$allocator@D@1@@std@@YA?AV?$basic_string@DU?$char_traits@D@std@@V?$allocator@D@2@@0@$$QEAV10@0@Z"(%"class.std::basic_string"* sret align 8 %11, %"class.std::basic_string"* nonnull align 8 dereferenceable(32) %13, %"class.std::basic_string"* nonnull align 8 dereferenceable(32) %12)
          to label %66 unwind label %85, !dbg !3134

66:                                               ; preds = %65
  invoke void @llvm.eha.scope.begin()
          to label %67 unwind label %83, !dbg !3134

67:                                               ; preds = %66
  invoke void @"??$?HDU?$char_traits@D@std@@V?$allocator@D@1@@std@@YA?AV?$basic_string@DU?$char_traits@D@std@@V?$allocator@D@2@@0@$$QEAV10@QEBD@Z"(%"class.std::basic_string"* sret align 8 %10, %"class.std::basic_string"* nonnull align 8 dereferenceable(32) %11, i8* getelementptr inbounds ([31 x i8], [31 x i8]* @"??_C@_0BP@FJINOLPO@?$DLg_shouldPauseExecute?5?$DN?5false?$DL?$AA@", i64 0, i64 0))
          to label %68 unwind label %83, !dbg !3134

68:                                               ; preds = %67
  invoke void @llvm.eha.scope.begin()
          to label %69 unwind label %81, !dbg !3134

69:                                               ; preds = %68
  %70 = call nonnull align 8 dereferenceable(32) %"class.std::basic_string"* @"??4?$basic_string@DU?$char_traits@D@std@@V?$allocator@D@2@@std@@QEAAAEAV01@$$QEAV01@@Z"(%"class.std::basic_string"* @"?g_expr@@3V?$basic_string@DU?$char_traits@D@std@@V?$allocator@D@2@@std@@A", %"class.std::basic_string"* nonnull align 8 dereferenceable(32) %10) #5, !dbg !3134
  invoke void @llvm.eha.scope.end()
          to label %71 unwind label %81, !dbg !3134

71:                                               ; preds = %69
  call void @"??1?$basic_string@DU?$char_traits@D@std@@V?$allocator@D@2@@std@@QEAA@XZ"(%"class.std::basic_string"* %10) #5, !dbg !3134
  invoke void @llvm.eha.scope.end()
          to label %72 unwind label %83, !dbg !3134

72:                                               ; preds = %71
  call void @"??1?$basic_string@DU?$char_traits@D@std@@V?$allocator@D@2@@std@@QEAA@XZ"(%"class.std::basic_string"* %11) #5, !dbg !3134
  invoke void @llvm.eha.scope.end()
          to label %73 unwind label %85, !dbg !3134

73:                                               ; preds = %72
  call void @"??1?$basic_string@DU?$char_traits@D@std@@V?$allocator@D@2@@std@@QEAA@XZ"(%"class.std::basic_string"* %13) #5, !dbg !3134
  invoke void @llvm.eha.scope.end()
          to label %74 unwind label %87, !dbg !3134

74:                                               ; preds = %73
  call void @"??1?$basic_string@DU?$char_traits@D@std@@V?$allocator@D@2@@std@@QEAA@XZ"(%"class.std::basic_string"* %12) #5, !dbg !3134
  store i8 1, i8* @"?g_shouldPauseExecute@@3_NA", align 1, !dbg !3134
  store i8 1, i8* @"?g_notifyBp@@3_NA", align 1, !dbg !3134
  br label %75, !dbg !3134

75:                                               ; preds = %78, %74
  %76 = load i8, i8* @"?g_shouldPauseExecute@@3_NA", align 1, !dbg !3134
  %77 = trunc i8 %76 to i1, !dbg !3134
  br i1 %77, label %78, label %89, !dbg !3134

78:                                               ; preds = %75
  br label %75, !dbg !3134, !llvm.loop !3135

79:                                               ; preds = %55, %54
  %80 = cleanuppad within none [], !dbg !3128
  call void @"??1?$unique_ptr@VClassWithDestructor@@U?$default_delete@VClassWithDestructor@@@std@@@std@@QEAA@XZ"(%"class.std::unique_ptr"* %8) #5 [ "funclet"(token %80) ], !dbg !3128
  cleanupret from %80 unwind label %100, !dbg !3128

81:                                               ; preds = %69, %68
  %82 = cleanuppad within none [], !dbg !3134
  call void @"??1?$basic_string@DU?$char_traits@D@std@@V?$allocator@D@2@@std@@QEAA@XZ"(%"class.std::basic_string"* %10) #5 [ "funclet"(token %82) ], !dbg !3134
  cleanupret from %82 unwind label %83, !dbg !3134

83:                                               ; preds = %71, %81, %67, %66
  %84 = cleanuppad within none [], !dbg !3134
  call void @"??1?$basic_string@DU?$char_traits@D@std@@V?$allocator@D@2@@std@@QEAA@XZ"(%"class.std::basic_string"* %11) #5 [ "funclet"(token %84) ], !dbg !3134
  cleanupret from %84 unwind label %85, !dbg !3134

85:                                               ; preds = %72, %83, %65, %64
  %86 = cleanuppad within none [], !dbg !3134
  call void @"??1?$basic_string@DU?$char_traits@D@std@@V?$allocator@D@2@@std@@QEAA@XZ"(%"class.std::basic_string"* %13) #5 [ "funclet"(token %86) ], !dbg !3134
  cleanupret from %86 unwind label %87, !dbg !3134

87:                                               ; preds = %73, %85, %62, %61
  %88 = cleanuppad within none [], !dbg !3134
  call void @"??1?$basic_string@DU?$char_traits@D@std@@V?$allocator@D@2@@std@@QEAA@XZ"(%"class.std::basic_string"* %12) #5 [ "funclet"(token %88) ], !dbg !3134
  cleanupret from %88 unwind label %98, !dbg !3134

89:                                               ; preds = %75
  %90 = load i32, i32* @"?g_counter@expression@test@@3HA", align 4, !dbg !3136
  %91 = icmp ne i32 %90, 0, !dbg !3136
  br i1 %91, label %93, label %92, !dbg !3138

92:                                               ; preds = %89
  call void @llvm.debugtrap(), !dbg !3139
  br label %93, !dbg !3139

93:                                               ; preds = %92, %89
  invoke void @llvm.eha.scope.end()
          to label %94 unwind label %98, !dbg !3141

94:                                               ; preds = %93
  call void @"??1?$basic_string@DU?$char_traits@D@std@@V?$allocator@D@2@@std@@QEAA@XZ"(%"class.std::basic_string"* %9) #5, !dbg !3141
  invoke void @llvm.eha.scope.end()
          to label %95 unwind label %100, !dbg !3141

95:                                               ; preds = %94
  call void @"??1?$basic_string@DU?$char_traits@D@std@@V?$allocator@D@2@@std@@QEAA@XZ"(%"class.std::basic_string"* %3) #5, !dbg !3141
  invoke void @llvm.eha.scope.end()
          to label %96 unwind label %102, !dbg !3141

96:                                               ; preds = %95
  call void @"??1?$unique_ptr@HU?$default_delete@H@std@@@std@@QEAA@XZ"(%"class.std::unique_ptr.2"* %2) #5, !dbg !3141
  invoke void @llvm.eha.scope.end()
          to label %97 unwind label %104, !dbg !3141

97:                                               ; preds = %96
  call void @"??1?$unique_ptr@HU?$default_delete@H@std@@@std@@QEAA@XZ"(%"class.std::unique_ptr.2"* %1) #5, !dbg !3141
  ret void, !dbg !3141

98:                                               ; preds = %93, %87, %59, %58
  %99 = cleanuppad within none [], !dbg !3141
  call void @"??1?$basic_string@DU?$char_traits@D@std@@V?$allocator@D@2@@std@@QEAA@XZ"(%"class.std::basic_string"* %9) #5 [ "funclet"(token %99) ], !dbg !3141
  cleanupret from %99 unwind label %100, !dbg !3141

100:                                              ; preds = %94, %98, %56, %79, %53, %46, %20, %19
  %101 = cleanuppad within none [], !dbg !3141
  call void @"??1?$basic_string@DU?$char_traits@D@std@@V?$allocator@D@2@@std@@QEAA@XZ"(%"class.std::basic_string"* %3) #5 [ "funclet"(token %101) ], !dbg !3141
  cleanupret from %101 unwind label %102, !dbg !3141

102:                                              ; preds = %95, %100, %17, %15
  %103 = cleanuppad within none [], !dbg !3141
  call void @"??1?$unique_ptr@HU?$default_delete@H@std@@@std@@QEAA@XZ"(%"class.std::unique_ptr.2"* %2) #5 [ "funclet"(token %103) ], !dbg !3141
  cleanupret from %103 unwind label %104, !dbg !3141

104:                                              ; preds = %96, %102, %0
  %105 = cleanuppad within none [], !dbg !3141
  call void @"??1?$unique_ptr@HU?$default_delete@H@std@@@std@@QEAA@XZ"(%"class.std::unique_ptr.2"* %1) #5 [ "funclet"(token %105) ], !dbg !3141
  cleanupret from %105 unwind to caller, !dbg !3141
}

; Function Attrs: noinline nounwind optnone uwtable
define linkonce_odr dso_local %"class.std::unique_ptr.2"* @"??$?0U?$default_delete@H@std@@$0A@@?$unique_ptr@HU?$default_delete@H@std@@@std@@QEAA@XZ"(%"class.std::unique_ptr.2"* returned %0) unnamed_addr #1 comdat align 2 !dbg !3142 {
  %2 = alloca %"class.std::unique_ptr.2"*, align 8
  %3 = alloca %"struct.std::_Zero_then_variadic_args_t", align 1
  store %"class.std::unique_ptr.2"* %0, %"class.std::unique_ptr.2"** %2, align 8
  call void @llvm.dbg.declare(metadata %"class.std::unique_ptr.2"** %2, metadata !3146, metadata !DIExpression()), !dbg !3148
  %4 = load %"class.std::unique_ptr.2"*, %"class.std::unique_ptr.2"** %2, align 8
  %5 = getelementptr inbounds %"class.std::unique_ptr.2", %"class.std::unique_ptr.2"* %4, i32 0, i32 0, !dbg !3149
  %6 = getelementptr inbounds %"struct.std::_Zero_then_variadic_args_t", %"struct.std::_Zero_then_variadic_args_t"* %3, i32 0, i32 0, !dbg !3149
  %7 = load i8, i8* %6, align 1, !dbg !3149
  %8 = call %"class.std::_Compressed_pair.3"* @"??$?0$$V@?$_Compressed_pair@U?$default_delete@H@std@@PEAH$00@std@@QEAA@U_Zero_then_variadic_args_t@1@@Z"(%"class.std::_Compressed_pair.3"* %5, i8 %7) #5, !dbg !3149
  ret %"class.std::unique_ptr.2"* %4, !dbg !3150
}

; Function Attrs: noinline nounwind optnone uwtable
define linkonce_odr dso_local nonnull align 4 dereferenceable(4) i32* @"??D?$unique_ptr@HU?$default_delete@H@std@@@std@@QEBAAEAHXZ"(%"class.std::unique_ptr.2"* %0) #1 comdat align 2 !dbg !3151 {
  %2 = alloca %"class.std::unique_ptr.2"*, align 8
  store %"class.std::unique_ptr.2"* %0, %"class.std::unique_ptr.2"** %2, align 8
  call void @llvm.dbg.declare(metadata %"class.std::unique_ptr.2"** %2, metadata !3152, metadata !DIExpression()), !dbg !3154
  %3 = load %"class.std::unique_ptr.2"*, %"class.std::unique_ptr.2"** %2, align 8
  %4 = getelementptr inbounds %"class.std::unique_ptr.2", %"class.std::unique_ptr.2"* %3, i32 0, i32 0, !dbg !3155
  %5 = getelementptr inbounds %"class.std::_Compressed_pair.3", %"class.std::_Compressed_pair.3"* %4, i32 0, i32 0, !dbg !3156
  %6 = load i32*, i32** %5, align 8, !dbg !3156
  ret i32* %6, !dbg !3157
}

; Function Attrs: noinline nounwind optnone uwtable
define linkonce_odr dso_local void @"??1?$unique_ptr@VClassWithDestructor@@U?$default_delete@VClassWithDestructor@@@std@@@std@@QEAA@XZ"(%"class.std::unique_ptr"* %0) unnamed_addr #1 comdat align 2 !dbg !3158 {
  %2 = alloca %"class.std::unique_ptr"*, align 8
  store %"class.std::unique_ptr"* %0, %"class.std::unique_ptr"** %2, align 8
  call void @llvm.dbg.declare(metadata %"class.std::unique_ptr"** %2, metadata !3159, metadata !DIExpression()), !dbg !3160
  %3 = load %"class.std::unique_ptr"*, %"class.std::unique_ptr"** %2, align 8
  %4 = getelementptr inbounds %"class.std::unique_ptr", %"class.std::unique_ptr"* %3, i32 0, i32 0, !dbg !3161
  %5 = getelementptr inbounds %"class.std::_Compressed_pair", %"class.std::_Compressed_pair"* %4, i32 0, i32 0, !dbg !3164
  %6 = load %class.ClassWithDestructor*, %class.ClassWithDestructor** %5, align 8, !dbg !3164
  %7 = icmp ne %class.ClassWithDestructor* %6, null, !dbg !3161
  br i1 %7, label %8, label %14, !dbg !3165

8:                                                ; preds = %1
  %9 = getelementptr inbounds %"class.std::unique_ptr", %"class.std::unique_ptr"* %3, i32 0, i32 0, !dbg !3166
  %10 = call nonnull align 1 dereferenceable(1) %"struct.std::default_delete"* @"?_Get_first@?$_Compressed_pair@U?$default_delete@VClassWithDestructor@@@std@@PEAVClassWithDestructor@@$00@std@@QEAAAEAU?$default_delete@VClassWithDestructor@@@2@XZ"(%"class.std::_Compressed_pair"* %9) #5, !dbg !3168
  %11 = getelementptr inbounds %"class.std::unique_ptr", %"class.std::unique_ptr"* %3, i32 0, i32 0, !dbg !3169
  %12 = getelementptr inbounds %"class.std::_Compressed_pair", %"class.std::_Compressed_pair"* %11, i32 0, i32 0, !dbg !3170
  %13 = load %class.ClassWithDestructor*, %class.ClassWithDestructor** %12, align 8, !dbg !3170
  call void @"??R?$default_delete@VClassWithDestructor@@@std@@QEBAXPEAVClassWithDestructor@@@Z"(%"struct.std::default_delete"* %10, %class.ClassWithDestructor* %13) #5, !dbg !3166
  br label %14, !dbg !3171

14:                                               ; preds = %8, %1
  ret void, !dbg !3172
}

; Function Attrs: noinline nounwind optnone uwtable
define linkonce_odr dso_local void @"??1?$unique_ptr@HU?$default_delete@H@std@@@std@@QEAA@XZ"(%"class.std::unique_ptr.2"* %0) unnamed_addr #1 comdat align 2 !dbg !3173 {
  %2 = alloca %"class.std::unique_ptr.2"*, align 8
  store %"class.std::unique_ptr.2"* %0, %"class.std::unique_ptr.2"** %2, align 8
  call void @llvm.dbg.declare(metadata %"class.std::unique_ptr.2"** %2, metadata !3174, metadata !DIExpression()), !dbg !3175
  %3 = load %"class.std::unique_ptr.2"*, %"class.std::unique_ptr.2"** %2, align 8
  %4 = getelementptr inbounds %"class.std::unique_ptr.2", %"class.std::unique_ptr.2"* %3, i32 0, i32 0, !dbg !3176
  %5 = getelementptr inbounds %"class.std::_Compressed_pair.3", %"class.std::_Compressed_pair.3"* %4, i32 0, i32 0, !dbg !3179
  %6 = load i32*, i32** %5, align 8, !dbg !3179
  %7 = icmp ne i32* %6, null, !dbg !3176
  br i1 %7, label %8, label %14, !dbg !3180

8:                                                ; preds = %1
  %9 = getelementptr inbounds %"class.std::unique_ptr.2", %"class.std::unique_ptr.2"* %3, i32 0, i32 0, !dbg !3181
  %10 = call nonnull align 1 dereferenceable(1) %"struct.std::default_delete.4"* @"?_Get_first@?$_Compressed_pair@U?$default_delete@H@std@@PEAH$00@std@@QEAAAEAU?$default_delete@H@2@XZ"(%"class.std::_Compressed_pair.3"* %9) #5, !dbg !3183
  %11 = getelementptr inbounds %"class.std::unique_ptr.2", %"class.std::unique_ptr.2"* %3, i32 0, i32 0, !dbg !3184
  %12 = getelementptr inbounds %"class.std::_Compressed_pair.3", %"class.std::_Compressed_pair.3"* %11, i32 0, i32 0, !dbg !3185
  %13 = load i32*, i32** %12, align 8, !dbg !3185
  call void @"??R?$default_delete@H@std@@QEBAXPEAH@Z"(%"struct.std::default_delete.4"* %10, i32* %13) #5, !dbg !3181
  br label %14, !dbg !3186

14:                                               ; preds = %8, %1
  ret void, !dbg !3187
}

; Function Attrs: noinline optnone uwtable
define dso_local dllexport void @"?windowsApiTest@expression@test@@YAXXZ"() #0 personality i8* bitcast (i32 (...)* @__CxxFrameHandler3 to i8*) !dbg !3188 {
  %1 = alloca %struct._STARTUPINFOW, align 8
  %2 = alloca %struct._CONTEXT, align 16
  %3 = alloca %struct._PROCESS_INFORMATION, align 8
  %4 = alloca %"class.std::basic_string", align 8
  %5 = alloca %"class.std::basic_string", align 8
  %6 = alloca %"class.std::basic_string", align 8
  %7 = alloca %"class.std::basic_string", align 8
  %8 = alloca %"class.std::basic_string", align 8
  call void @llvm.dbg.declare(metadata %struct._STARTUPINFOW* %1, metadata !3189, metadata !DIExpression()), !dbg !3223
  %9 = bitcast %struct._STARTUPINFOW* %1 to i8*, !dbg !3223
  call void @llvm.memset.p0i8.i64(i8* align 8 %9, i8 0, i64 104, i1 false), !dbg !3223
  %10 = bitcast %struct._STARTUPINFOW* %1 to i8*, !dbg !3224
  %11 = bitcast %struct._STARTUPINFOW* %1 to i8*, !dbg !3224
  call void @llvm.memcpy.p0i8.p0i8.i64(i8* align 8 %10, i8* align 8 %11, i64 104, i1 false), !dbg !3224
  call void @llvm.dbg.declare(metadata %struct._CONTEXT* %2, metadata !3225, metadata !DIExpression()), !dbg !3341
  %12 = bitcast %struct._CONTEXT* %2 to i8*, !dbg !3341
  call void @llvm.memset.p0i8.i64(i8* align 16 %12, i8 0, i64 1232, i1 false), !dbg !3341
  %13 = bitcast %struct._CONTEXT* %2 to i8*, !dbg !3342
  %14 = bitcast %struct._CONTEXT* %2 to i8*, !dbg !3342
  call void @llvm.memcpy.p0i8.p0i8.i64(i8* align 16 %13, i8* align 16 %14, i64 1232, i1 false), !dbg !3342
  call void @llvm.dbg.declare(metadata %struct._PROCESS_INFORMATION* %3, metadata !3343, metadata !DIExpression()), !dbg !3351
  %15 = bitcast %struct._PROCESS_INFORMATION* %3 to i8*, !dbg !3352
  %16 = bitcast %struct._PROCESS_INFORMATION* %3 to i8*, !dbg !3352
  call void @llvm.memcpy.p0i8.p0i8.i64(i8* align 8 %15, i8* align 8 %16, i64 24, i1 false), !dbg !3352
  call void @llvm.dbg.declare(metadata %"class.std::basic_string"* %4, metadata !3353, metadata !DIExpression()), !dbg !3354
  %17 = call %"class.std::basic_string"* @"??0?$basic_string@DU?$char_traits@D@std@@V?$allocator@D@2@@std@@QEAA@QEBD@Z"(%"class.std::basic_string"* %4, i8* getelementptr inbounds ([168 x i8], [168 x i8]* @"??_C@_0KI@EBHLGOBM@PROCESS_INFORMATION?5w?5?$DN?5?$HL?$HN?$DL?6s?4cb@", i64 0, i64 0)), !dbg !3355
  invoke void @llvm.eha.scope.begin()
          to label %18 unwind label %60, !dbg !3356

18:                                               ; preds = %0
  %19 = invoke %"class.std::basic_string"* @"??0?$basic_string@DU?$char_traits@D@std@@V?$allocator@D@2@@std@@QEAA@AEBV01@@Z"(%"class.std::basic_string"* %7, %"class.std::basic_string"* nonnull align 8 dereferenceable(32) %4)
          to label %20 unwind label %60, !dbg !3357

20:                                               ; preds = %18
  invoke void @llvm.eha.scope.begin()
          to label %21 unwind label %44, !dbg !3357

21:                                               ; preds = %20
  %22 = invoke %"class.std::basic_string"* @"??0?$basic_string@DU?$char_traits@D@std@@V?$allocator@D@2@@std@@QEAA@QEBD@Z"(%"class.std::basic_string"* %8, i8* getelementptr inbounds ([94 x i8], [94 x i8]* @"??_C@_0FO@BMCOEJHP@?7?$CDdefine?5FAIL_TEST_IF_FALSE?$CIcond@", i64 0, i64 0))
          to label %23 unwind label %44, !dbg !3357

23:                                               ; preds = %21
  invoke void @llvm.eha.scope.begin()
          to label %24 unwind label %42, !dbg !3357

24:                                               ; preds = %23
  invoke void @"??$?HDU?$char_traits@D@std@@V?$allocator@D@1@@std@@YA?AV?$basic_string@DU?$char_traits@D@std@@V?$allocator@D@2@@0@$$QEAV10@0@Z"(%"class.std::basic_string"* sret align 8 %6, %"class.std::basic_string"* nonnull align 8 dereferenceable(32) %8, %"class.std::basic_string"* nonnull align 8 dereferenceable(32) %7)
          to label %25 unwind label %42, !dbg !3357

25:                                               ; preds = %24
  invoke void @llvm.eha.scope.begin()
          to label %26 unwind label %40, !dbg !3357

26:                                               ; preds = %25
  invoke void @"??$?HDU?$char_traits@D@std@@V?$allocator@D@1@@std@@YA?AV?$basic_string@DU?$char_traits@D@std@@V?$allocator@D@2@@0@$$QEAV10@QEBD@Z"(%"class.std::basic_string"* sret align 8 %5, %"class.std::basic_string"* nonnull align 8 dereferenceable(32) %6, i8* getelementptr inbounds ([31 x i8], [31 x i8]* @"??_C@_0BP@FJINOLPO@?$DLg_shouldPauseExecute?5?$DN?5false?$DL?$AA@", i64 0, i64 0))
          to label %27 unwind label %40, !dbg !3357

27:                                               ; preds = %26
  invoke void @llvm.eha.scope.begin()
          to label %28 unwind label %38, !dbg !3357

28:                                               ; preds = %27
  %29 = call nonnull align 8 dereferenceable(32) %"class.std::basic_string"* @"??4?$basic_string@DU?$char_traits@D@std@@V?$allocator@D@2@@std@@QEAAAEAV01@$$QEAV01@@Z"(%"class.std::basic_string"* @"?g_expr@@3V?$basic_string@DU?$char_traits@D@std@@V?$allocator@D@2@@std@@A", %"class.std::basic_string"* nonnull align 8 dereferenceable(32) %5) #5, !dbg !3357
  invoke void @llvm.eha.scope.end()
          to label %30 unwind label %38, !dbg !3357

30:                                               ; preds = %28
  call void @"??1?$basic_string@DU?$char_traits@D@std@@V?$allocator@D@2@@std@@QEAA@XZ"(%"class.std::basic_string"* %5) #5, !dbg !3357
  invoke void @llvm.eha.scope.end()
          to label %31 unwind label %40, !dbg !3357

31:                                               ; preds = %30
  call void @"??1?$basic_string@DU?$char_traits@D@std@@V?$allocator@D@2@@std@@QEAA@XZ"(%"class.std::basic_string"* %6) #5, !dbg !3357
  invoke void @llvm.eha.scope.end()
          to label %32 unwind label %42, !dbg !3357

32:                                               ; preds = %31
  call void @"??1?$basic_string@DU?$char_traits@D@std@@V?$allocator@D@2@@std@@QEAA@XZ"(%"class.std::basic_string"* %8) #5, !dbg !3357
  invoke void @llvm.eha.scope.end()
          to label %33 unwind label %44, !dbg !3357

33:                                               ; preds = %32
  call void @"??1?$basic_string@DU?$char_traits@D@std@@V?$allocator@D@2@@std@@QEAA@XZ"(%"class.std::basic_string"* %7) #5, !dbg !3357
  store i8 1, i8* @"?g_shouldPauseExecute@@3_NA", align 1, !dbg !3357
  store i8 1, i8* @"?g_notifyBp@@3_NA", align 1, !dbg !3357
  br label %34, !dbg !3357

34:                                               ; preds = %37, %33
  %35 = load i8, i8* @"?g_shouldPauseExecute@@3_NA", align 1, !dbg !3357
  %36 = trunc i8 %35 to i1, !dbg !3357
  br i1 %36, label %37, label %46, !dbg !3357

37:                                               ; preds = %34
  br label %34, !dbg !3357, !llvm.loop !3358

38:                                               ; preds = %28, %27
  %39 = cleanuppad within none [], !dbg !3357
  call void @"??1?$basic_string@DU?$char_traits@D@std@@V?$allocator@D@2@@std@@QEAA@XZ"(%"class.std::basic_string"* %5) #5 [ "funclet"(token %39) ], !dbg !3357
  cleanupret from %39 unwind label %40, !dbg !3357

40:                                               ; preds = %30, %38, %26, %25
  %41 = cleanuppad within none [], !dbg !3357
  call void @"??1?$basic_string@DU?$char_traits@D@std@@V?$allocator@D@2@@std@@QEAA@XZ"(%"class.std::basic_string"* %6) #5 [ "funclet"(token %41) ], !dbg !3357
  cleanupret from %41 unwind label %42, !dbg !3357

42:                                               ; preds = %31, %40, %24, %23
  %43 = cleanuppad within none [], !dbg !3357
  call void @"??1?$basic_string@DU?$char_traits@D@std@@V?$allocator@D@2@@std@@QEAA@XZ"(%"class.std::basic_string"* %8) #5 [ "funclet"(token %43) ], !dbg !3357
  cleanupret from %43 unwind label %44, !dbg !3357

44:                                               ; preds = %32, %42, %21, %20
  %45 = cleanuppad within none [], !dbg !3357
  call void @"??1?$basic_string@DU?$char_traits@D@std@@V?$allocator@D@2@@std@@QEAA@XZ"(%"class.std::basic_string"* %7) #5 [ "funclet"(token %45) ], !dbg !3357
  cleanupret from %45 unwind label %60, !dbg !3357

46:                                               ; preds = %34
  %47 = getelementptr inbounds %struct._CONTEXT, %struct._CONTEXT* %2, i32 0, i32 31, !dbg !3359
  %48 = load i64, i64* %47, align 8, !dbg !3359
  %49 = icmp eq i64 %48, 8, !dbg !3359
  br i1 %49, label %51, label %50, !dbg !3361

50:                                               ; preds = %46
  call void @llvm.debugtrap(), !dbg !3362
  br label %51, !dbg !3362

51:                                               ; preds = %50, %46
  %52 = getelementptr inbounds %struct._PROCESS_INFORMATION, %struct._PROCESS_INFORMATION* %3, i32 0, i32 1, !dbg !3364
  %53 = load i8*, i8** %52, align 8, !dbg !3364
  %54 = invoke i8* @GetCurrentThread()
          to label %55 unwind label %60, !dbg !3364

55:                                               ; preds = %51
  %56 = icmp eq i8* %53, %54, !dbg !3364
  br i1 %56, label %58, label %57, !dbg !3366

57:                                               ; preds = %55
  call void @llvm.debugtrap(), !dbg !3367
  br label %58, !dbg !3367

58:                                               ; preds = %57, %55
  invoke void @llvm.eha.scope.end()
          to label %59 unwind label %60, !dbg !3369

59:                                               ; preds = %58
  call void @"??1?$basic_string@DU?$char_traits@D@std@@V?$allocator@D@2@@std@@QEAA@XZ"(%"class.std::basic_string"* %4) #5, !dbg !3369
  ret void, !dbg !3369

60:                                               ; preds = %58, %51, %44, %18, %0
  %61 = cleanuppad within none [], !dbg !3369
  call void @"??1?$basic_string@DU?$char_traits@D@std@@V?$allocator@D@2@@std@@QEAA@XZ"(%"class.std::basic_string"* %4) #5 [ "funclet"(token %61) ], !dbg !3369
  cleanupret from %61 unwind to caller, !dbg !3369
}

; Function Attrs: argmemonly nounwind willreturn writeonly
declare void @llvm.memset.p0i8.i64(i8* nocapture writeonly, i8, i64, i1 immarg) #9

declare dllimport i8* @GetCurrentThread() #6

; Function Attrs: noinline optnone uwtable
define dso_local dllexport void @"?mixStlWithDwarfData@expression@test@@YAXXZ"() #0 personality i8* bitcast (i32 (...)* @__CxxFrameHandler3 to i8*) !dbg !3370 {
  %1 = alloca %"struct.test::expression::MyStruct", align 4
  %2 = alloca %"class.std::basic_string", align 8
  %3 = alloca %"class.std::basic_string", align 8
  %4 = alloca %"class.std::basic_string", align 8
  %5 = alloca %"class.std::basic_string", align 8
  %6 = alloca %"class.std::basic_string", align 8
  call void @llvm.dbg.declare(metadata %"struct.test::expression::MyStruct"* %1, metadata !3371, metadata !DIExpression()), !dbg !3375
  %7 = getelementptr inbounds %"struct.test::expression::MyStruct", %"struct.test::expression::MyStruct"* %1, i32 0, i32 0, !dbg !3376
  %8 = load i32, i32* %7, align 4, !dbg !3376
  %9 = getelementptr inbounds %"struct.test::expression::MyStruct", %"struct.test::expression::MyStruct"* %1, i32 0, i32 0, !dbg !3377
  store i32 %8, i32* %9, align 4, !dbg !3378
  call void @llvm.dbg.declare(metadata %"class.std::basic_string"* %2, metadata !3379, metadata !DIExpression()), !dbg !3380
  %10 = call %"class.std::basic_string"* @"??0?$basic_string@DU?$char_traits@D@std@@V?$allocator@D@2@@std@@QEAA@QEBD@Z"(%"class.std::basic_string"* %2, i8* getelementptr inbounds ([92 x i8], [92 x i8]* @"??_C@_0FM@BHMHCBJK@test?3?3expression?3?3MyStruct?5s?$DLaut@", i64 0, i64 0)), !dbg !3381
  invoke void @llvm.eha.scope.begin()
          to label %11 unwind label %41, !dbg !3382

11:                                               ; preds = %0
  %12 = invoke %"class.std::basic_string"* @"??0?$basic_string@DU?$char_traits@D@std@@V?$allocator@D@2@@std@@QEAA@AEBV01@@Z"(%"class.std::basic_string"* %5, %"class.std::basic_string"* nonnull align 8 dereferenceable(32) %2)
          to label %13 unwind label %41, !dbg !3383

13:                                               ; preds = %11
  invoke void @llvm.eha.scope.begin()
          to label %14 unwind label %37, !dbg !3383

14:                                               ; preds = %13
  %15 = invoke %"class.std::basic_string"* @"??0?$basic_string@DU?$char_traits@D@std@@V?$allocator@D@2@@std@@QEAA@QEBD@Z"(%"class.std::basic_string"* %6, i8* getelementptr inbounds ([94 x i8], [94 x i8]* @"??_C@_0FO@BMCOEJHP@?7?$CDdefine?5FAIL_TEST_IF_FALSE?$CIcond@", i64 0, i64 0))
          to label %16 unwind label %37, !dbg !3383

16:                                               ; preds = %14
  invoke void @llvm.eha.scope.begin()
          to label %17 unwind label %35, !dbg !3383

17:                                               ; preds = %16
  invoke void @"??$?HDU?$char_traits@D@std@@V?$allocator@D@1@@std@@YA?AV?$basic_string@DU?$char_traits@D@std@@V?$allocator@D@2@@0@$$QEAV10@0@Z"(%"class.std::basic_string"* sret align 8 %4, %"class.std::basic_string"* nonnull align 8 dereferenceable(32) %6, %"class.std::basic_string"* nonnull align 8 dereferenceable(32) %5)
          to label %18 unwind label %35, !dbg !3383

18:                                               ; preds = %17
  invoke void @llvm.eha.scope.begin()
          to label %19 unwind label %33, !dbg !3383

19:                                               ; preds = %18
  invoke void @"??$?HDU?$char_traits@D@std@@V?$allocator@D@1@@std@@YA?AV?$basic_string@DU?$char_traits@D@std@@V?$allocator@D@2@@0@$$QEAV10@QEBD@Z"(%"class.std::basic_string"* sret align 8 %3, %"class.std::basic_string"* nonnull align 8 dereferenceable(32) %4, i8* getelementptr inbounds ([31 x i8], [31 x i8]* @"??_C@_0BP@FJINOLPO@?$DLg_shouldPauseExecute?5?$DN?5false?$DL?$AA@", i64 0, i64 0))
          to label %20 unwind label %33, !dbg !3383

20:                                               ; preds = %19
  invoke void @llvm.eha.scope.begin()
          to label %21 unwind label %31, !dbg !3383

21:                                               ; preds = %20
  %22 = call nonnull align 8 dereferenceable(32) %"class.std::basic_string"* @"??4?$basic_string@DU?$char_traits@D@std@@V?$allocator@D@2@@std@@QEAAAEAV01@$$QEAV01@@Z"(%"class.std::basic_string"* @"?g_expr@@3V?$basic_string@DU?$char_traits@D@std@@V?$allocator@D@2@@std@@A", %"class.std::basic_string"* nonnull align 8 dereferenceable(32) %3) #5, !dbg !3383
  invoke void @llvm.eha.scope.end()
          to label %23 unwind label %31, !dbg !3383

23:                                               ; preds = %21
  call void @"??1?$basic_string@DU?$char_traits@D@std@@V?$allocator@D@2@@std@@QEAA@XZ"(%"class.std::basic_string"* %3) #5, !dbg !3383
  invoke void @llvm.eha.scope.end()
          to label %24 unwind label %33, !dbg !3383

24:                                               ; preds = %23
  call void @"??1?$basic_string@DU?$char_traits@D@std@@V?$allocator@D@2@@std@@QEAA@XZ"(%"class.std::basic_string"* %4) #5, !dbg !3383
  invoke void @llvm.eha.scope.end()
          to label %25 unwind label %35, !dbg !3383

25:                                               ; preds = %24
  call void @"??1?$basic_string@DU?$char_traits@D@std@@V?$allocator@D@2@@std@@QEAA@XZ"(%"class.std::basic_string"* %6) #5, !dbg !3383
  invoke void @llvm.eha.scope.end()
          to label %26 unwind label %37, !dbg !3383

26:                                               ; preds = %25
  call void @"??1?$basic_string@DU?$char_traits@D@std@@V?$allocator@D@2@@std@@QEAA@XZ"(%"class.std::basic_string"* %5) #5, !dbg !3383
  store i8 1, i8* @"?g_shouldPauseExecute@@3_NA", align 1, !dbg !3383
  store i8 1, i8* @"?g_notifyBp@@3_NA", align 1, !dbg !3383
  br label %27, !dbg !3383

27:                                               ; preds = %30, %26
  %28 = load i8, i8* @"?g_shouldPauseExecute@@3_NA", align 1, !dbg !3383
  %29 = trunc i8 %28 to i1, !dbg !3383
  br i1 %29, label %30, label %39, !dbg !3383

30:                                               ; preds = %27
  br label %27, !dbg !3383, !llvm.loop !3384

31:                                               ; preds = %21, %20
  %32 = cleanuppad within none [], !dbg !3383
  call void @"??1?$basic_string@DU?$char_traits@D@std@@V?$allocator@D@2@@std@@QEAA@XZ"(%"class.std::basic_string"* %3) #5 [ "funclet"(token %32) ], !dbg !3383
  cleanupret from %32 unwind label %33, !dbg !3383

33:                                               ; preds = %23, %31, %19, %18
  %34 = cleanuppad within none [], !dbg !3383
  call void @"??1?$basic_string@DU?$char_traits@D@std@@V?$allocator@D@2@@std@@QEAA@XZ"(%"class.std::basic_string"* %4) #5 [ "funclet"(token %34) ], !dbg !3383
  cleanupret from %34 unwind label %35, !dbg !3383

35:                                               ; preds = %24, %33, %17, %16
  %36 = cleanuppad within none [], !dbg !3383
  call void @"??1?$basic_string@DU?$char_traits@D@std@@V?$allocator@D@2@@std@@QEAA@XZ"(%"class.std::basic_string"* %6) #5 [ "funclet"(token %36) ], !dbg !3383
  cleanupret from %36 unwind label %37, !dbg !3383

37:                                               ; preds = %25, %35, %14, %13
  %38 = cleanuppad within none [], !dbg !3383
  call void @"??1?$basic_string@DU?$char_traits@D@std@@V?$allocator@D@2@@std@@QEAA@XZ"(%"class.std::basic_string"* %5) #5 [ "funclet"(token %38) ], !dbg !3383
  cleanupret from %38 unwind label %41, !dbg !3383

39:                                               ; preds = %27
  invoke void @llvm.eha.scope.end()
          to label %40 unwind label %41, !dbg !3385

40:                                               ; preds = %39
  call void @"??1?$basic_string@DU?$char_traits@D@std@@V?$allocator@D@2@@std@@QEAA@XZ"(%"class.std::basic_string"* %2) #5, !dbg !3385
  ret void, !dbg !3385

41:                                               ; preds = %39, %37, %11, %0
  %42 = cleanuppad within none [], !dbg !3385
  call void @"??1?$basic_string@DU?$char_traits@D@std@@V?$allocator@D@2@@std@@QEAA@XZ"(%"class.std::basic_string"* %2) #5 [ "funclet"(token %42) ], !dbg !3385
  cleanupret from %42 unwind to caller, !dbg !3385
}

; Function Attrs: noinline optnone uwtable
define dso_local dllexport void @"?allStl@expression@test@@YAXXZ"() #0 personality i8* bitcast (i32 (...)* @__CxxFrameHandler3 to i8*) !dbg !3386 {
  %1 = alloca %"struct.test::expression::MyStruct", align 4
  %2 = alloca %"class.std::basic_string", align 8
  %3 = alloca %"class.std::basic_string", align 8
  %4 = alloca %"class.std::basic_string", align 8
  %5 = alloca %"class.std::basic_string", align 8
  %6 = alloca %"class.std::basic_string", align 8
  call void @llvm.dbg.declare(metadata %"struct.test::expression::MyStruct"* %1, metadata !3387, metadata !DIExpression()), !dbg !3388
  %7 = getelementptr inbounds %"struct.test::expression::MyStruct", %"struct.test::expression::MyStruct"* %1, i32 0, i32 0, !dbg !3389
  %8 = load i32, i32* %7, align 4, !dbg !3389
  %9 = getelementptr inbounds %"struct.test::expression::MyStruct", %"struct.test::expression::MyStruct"* %1, i32 0, i32 0, !dbg !3390
  store i32 %8, i32* %9, align 4, !dbg !3391
  call void @llvm.dbg.declare(metadata %"class.std::basic_string"* %2, metadata !3392, metadata !DIExpression()), !dbg !3393
  %10 = call %"class.std::basic_string"* @"??0?$basic_string@DU?$char_traits@D@std@@V?$allocator@D@2@@std@@QEAA@QEBD@Z"(%"class.std::basic_string"* %2, i8* getelementptr inbounds ([93 x i8], [93 x i8]* @"??_C@_0FN@ECLNLPJK@std?3?3shared_ptr?$DMint?$DO?5f?$DLstd?3?3opti@", i64 0, i64 0)), !dbg !3394
  invoke void @llvm.eha.scope.begin()
          to label %11 unwind label %41, !dbg !3395

11:                                               ; preds = %0
  %12 = invoke %"class.std::basic_string"* @"??0?$basic_string@DU?$char_traits@D@std@@V?$allocator@D@2@@std@@QEAA@AEBV01@@Z"(%"class.std::basic_string"* %5, %"class.std::basic_string"* nonnull align 8 dereferenceable(32) %2)
          to label %13 unwind label %41, !dbg !3396

13:                                               ; preds = %11
  invoke void @llvm.eha.scope.begin()
          to label %14 unwind label %37, !dbg !3396

14:                                               ; preds = %13
  %15 = invoke %"class.std::basic_string"* @"??0?$basic_string@DU?$char_traits@D@std@@V?$allocator@D@2@@std@@QEAA@QEBD@Z"(%"class.std::basic_string"* %6, i8* getelementptr inbounds ([94 x i8], [94 x i8]* @"??_C@_0FO@BMCOEJHP@?7?$CDdefine?5FAIL_TEST_IF_FALSE?$CIcond@", i64 0, i64 0))
          to label %16 unwind label %37, !dbg !3396

16:                                               ; preds = %14
  invoke void @llvm.eha.scope.begin()
          to label %17 unwind label %35, !dbg !3396

17:                                               ; preds = %16
  invoke void @"??$?HDU?$char_traits@D@std@@V?$allocator@D@1@@std@@YA?AV?$basic_string@DU?$char_traits@D@std@@V?$allocator@D@2@@0@$$QEAV10@0@Z"(%"class.std::basic_string"* sret align 8 %4, %"class.std::basic_string"* nonnull align 8 dereferenceable(32) %6, %"class.std::basic_string"* nonnull align 8 dereferenceable(32) %5)
          to label %18 unwind label %35, !dbg !3396

18:                                               ; preds = %17
  invoke void @llvm.eha.scope.begin()
          to label %19 unwind label %33, !dbg !3396

19:                                               ; preds = %18
  invoke void @"??$?HDU?$char_traits@D@std@@V?$allocator@D@1@@std@@YA?AV?$basic_string@DU?$char_traits@D@std@@V?$allocator@D@2@@0@$$QEAV10@QEBD@Z"(%"class.std::basic_string"* sret align 8 %3, %"class.std::basic_string"* nonnull align 8 dereferenceable(32) %4, i8* getelementptr inbounds ([31 x i8], [31 x i8]* @"??_C@_0BP@FJINOLPO@?$DLg_shouldPauseExecute?5?$DN?5false?$DL?$AA@", i64 0, i64 0))
          to label %20 unwind label %33, !dbg !3396

20:                                               ; preds = %19
  invoke void @llvm.eha.scope.begin()
          to label %21 unwind label %31, !dbg !3396

21:                                               ; preds = %20
  %22 = call nonnull align 8 dereferenceable(32) %"class.std::basic_string"* @"??4?$basic_string@DU?$char_traits@D@std@@V?$allocator@D@2@@std@@QEAAAEAV01@$$QEAV01@@Z"(%"class.std::basic_string"* @"?g_expr@@3V?$basic_string@DU?$char_traits@D@std@@V?$allocator@D@2@@std@@A", %"class.std::basic_string"* nonnull align 8 dereferenceable(32) %3) #5, !dbg !3396
  invoke void @llvm.eha.scope.end()
          to label %23 unwind label %31, !dbg !3396

23:                                               ; preds = %21
  call void @"??1?$basic_string@DU?$char_traits@D@std@@V?$allocator@D@2@@std@@QEAA@XZ"(%"class.std::basic_string"* %3) #5, !dbg !3396
  invoke void @llvm.eha.scope.end()
          to label %24 unwind label %33, !dbg !3396

24:                                               ; preds = %23
  call void @"??1?$basic_string@DU?$char_traits@D@std@@V?$allocator@D@2@@std@@QEAA@XZ"(%"class.std::basic_string"* %4) #5, !dbg !3396
  invoke void @llvm.eha.scope.end()
          to label %25 unwind label %35, !dbg !3396

25:                                               ; preds = %24
  call void @"??1?$basic_string@DU?$char_traits@D@std@@V?$allocator@D@2@@std@@QEAA@XZ"(%"class.std::basic_string"* %6) #5, !dbg !3396
  invoke void @llvm.eha.scope.end()
          to label %26 unwind label %37, !dbg !3396

26:                                               ; preds = %25
  call void @"??1?$basic_string@DU?$char_traits@D@std@@V?$allocator@D@2@@std@@QEAA@XZ"(%"class.std::basic_string"* %5) #5, !dbg !3396
  store i8 1, i8* @"?g_shouldPauseExecute@@3_NA", align 1, !dbg !3396
  store i8 1, i8* @"?g_notifyBp@@3_NA", align 1, !dbg !3396
  br label %27, !dbg !3396

27:                                               ; preds = %30, %26
  %28 = load i8, i8* @"?g_shouldPauseExecute@@3_NA", align 1, !dbg !3396
  %29 = trunc i8 %28 to i1, !dbg !3396
  br i1 %29, label %30, label %39, !dbg !3396

30:                                               ; preds = %27
  br label %27, !dbg !3396, !llvm.loop !3397

31:                                               ; preds = %21, %20
  %32 = cleanuppad within none [], !dbg !3396
  call void @"??1?$basic_string@DU?$char_traits@D@std@@V?$allocator@D@2@@std@@QEAA@XZ"(%"class.std::basic_string"* %3) #5 [ "funclet"(token %32) ], !dbg !3396
  cleanupret from %32 unwind label %33, !dbg !3396

33:                                               ; preds = %23, %31, %19, %18
  %34 = cleanuppad within none [], !dbg !3396
  call void @"??1?$basic_string@DU?$char_traits@D@std@@V?$allocator@D@2@@std@@QEAA@XZ"(%"class.std::basic_string"* %4) #5 [ "funclet"(token %34) ], !dbg !3396
  cleanupret from %34 unwind label %35, !dbg !3396

35:                                               ; preds = %24, %33, %17, %16
  %36 = cleanuppad within none [], !dbg !3396
  call void @"??1?$basic_string@DU?$char_traits@D@std@@V?$allocator@D@2@@std@@QEAA@XZ"(%"class.std::basic_string"* %6) #5 [ "funclet"(token %36) ], !dbg !3396
  cleanupret from %36 unwind label %37, !dbg !3396

37:                                               ; preds = %25, %35, %14, %13
  %38 = cleanuppad within none [], !dbg !3396
  call void @"??1?$basic_string@DU?$char_traits@D@std@@V?$allocator@D@2@@std@@QEAA@XZ"(%"class.std::basic_string"* %5) #5 [ "funclet"(token %38) ], !dbg !3396
  cleanupret from %38 unwind label %41, !dbg !3396

39:                                               ; preds = %27
  invoke void @llvm.eha.scope.end()
          to label %40 unwind label %41, !dbg !3398

40:                                               ; preds = %39
  call void @"??1?$basic_string@DU?$char_traits@D@std@@V?$allocator@D@2@@std@@QEAA@XZ"(%"class.std::basic_string"* %2) #5, !dbg !3398
  ret void, !dbg !3398

41:                                               ; preds = %39, %37, %11, %0
  %42 = cleanuppad within none [], !dbg !3398
  call void @"??1?$basic_string@DU?$char_traits@D@std@@V?$allocator@D@2@@std@@QEAA@XZ"(%"class.std::basic_string"* %2) #5 [ "funclet"(token %42) ], !dbg !3398
  cleanupret from %42 unwind to caller, !dbg !3398
}

; Function Attrs: noinline nounwind optnone uwtable
define linkonce_odr dso_local %"class.std::_Compressed_pair"* @"??$?0$$V@?$_Compressed_pair@U?$default_delete@VClassWithDestructor@@@std@@PEAVClassWithDestructor@@$00@std@@QEAA@U_Zero_then_variadic_args_t@1@@Z"(%"class.std::_Compressed_pair"* returned %0, i8 %1) unnamed_addr #1 comdat align 2 !dbg !3399 {
  %3 = alloca %"struct.std::_Zero_then_variadic_args_t", align 1
  %4 = alloca %"class.std::_Compressed_pair"*, align 8
  %5 = getelementptr inbounds %"struct.std::_Zero_then_variadic_args_t", %"struct.std::_Zero_then_variadic_args_t"* %3, i32 0, i32 0
  store i8 %1, i8* %5, align 1
  call void @llvm.dbg.declare(metadata %"struct.std::_Zero_then_variadic_args_t"* %3, metadata !3411, metadata !DIExpression()), !dbg !3412
  store %"class.std::_Compressed_pair"* %0, %"class.std::_Compressed_pair"** %4, align 8
  call void @llvm.dbg.declare(metadata %"class.std::_Compressed_pair"** %4, metadata !3413, metadata !DIExpression()), !dbg !3415
  %6 = load %"class.std::_Compressed_pair"*, %"class.std::_Compressed_pair"** %4, align 8
  %7 = bitcast %"class.std::_Compressed_pair"* %6 to %"struct.std::default_delete"*, !dbg !3416
  %8 = getelementptr inbounds %"class.std::_Compressed_pair", %"class.std::_Compressed_pair"* %6, i32 0, i32 0, !dbg !3417
  store %class.ClassWithDestructor* null, %class.ClassWithDestructor** %8, align 8, !dbg !3417
  ret %"class.std::_Compressed_pair"* %6, !dbg !3418
}

; Function Attrs: noinline nounwind optnone uwtable
define linkonce_odr dso_local nonnull align 4 dereferenceable(4) i32* @"??$forward@H@std@@YA$$QEAHAEAH@Z"(i32* nonnull align 4 dereferenceable(4) %0) #1 comdat !dbg !3419 {
  %2 = alloca i32*, align 8
  store i32* %0, i32** %2, align 8
  call void @llvm.dbg.declare(metadata i32** %2, metadata !3426, metadata !DIExpression()), !dbg !3427
  %3 = load i32*, i32** %2, align 8, !dbg !3428
  ret i32* %3, !dbg !3429
}

; Function Attrs: noinline optnone uwtable
define internal %"struct.std::_Optional_construct_base"* @"??0?$_Optional_construct_base@H@std@@QEAA@Uin_place_t@1@$$QEAH@Z"(%"struct.std::_Optional_construct_base"* returned %0, i8 %1, i32* nonnull align 4 dereferenceable(4) %2) unnamed_addr #0 comdat align 2 !dbg !3430 {
  %4 = alloca %"struct.std::in_place_t", align 1
  %5 = alloca i32*, align 8
  %6 = alloca %"struct.std::_Optional_construct_base"*, align 8
  %7 = getelementptr inbounds %"struct.std::in_place_t", %"struct.std::in_place_t"* %4, i32 0, i32 0
  store i8 %1, i8* %7, align 1
  store i32* %2, i32** %5, align 8
  call void @llvm.dbg.declare(metadata i32** %5, metadata !3435, metadata !DIExpression()), !dbg !3436
  call void @llvm.dbg.declare(metadata %"struct.std::in_place_t"* %4, metadata !3437, metadata !DIExpression()), !dbg !3436
  store %"struct.std::_Optional_construct_base"* %0, %"struct.std::_Optional_construct_base"** %6, align 8
  call void @llvm.dbg.declare(metadata %"struct.std::_Optional_construct_base"** %6, metadata !3438, metadata !DIExpression()), !dbg !3436
  %8 = load %"struct.std::_Optional_construct_base"*, %"struct.std::_Optional_construct_base"** %6, align 8
  %9 = bitcast %"struct.std::_Optional_construct_base"* %8 to %"struct.std::_Optional_destruct_base"*, !dbg !3440
  %10 = load i32*, i32** %5, align 8, !dbg !3440
  %11 = getelementptr inbounds %"struct.std::in_place_t", %"struct.std::in_place_t"* %4, i32 0, i32 0, !dbg !3440
  %12 = load i8, i8* %11, align 1, !dbg !3440
  %13 = call %"struct.std::_Optional_destruct_base"* @"??$?0H@?$_Optional_destruct_base@H$00@std@@QEAA@Uin_place_t@1@$$QEAH@Z"(%"struct.std::_Optional_destruct_base"* %9, i8 %12, i32* nonnull align 4 dereferenceable(4) %10), !dbg !3440
  ret %"struct.std::_Optional_construct_base"* %8, !dbg !3440
}

; Function Attrs: noinline optnone uwtable
define linkonce_odr dso_local %"struct.std::_Optional_destruct_base"* @"??$?0H@?$_Optional_destruct_base@H$00@std@@QEAA@Uin_place_t@1@$$QEAH@Z"(%"struct.std::_Optional_destruct_base"* returned %0, i8 %1, i32* nonnull align 4 dereferenceable(4) %2) unnamed_addr #0 comdat align 2 !dbg !3441 {
  %4 = alloca %"struct.std::in_place_t", align 1
  %5 = alloca i32*, align 8
  %6 = alloca %"struct.std::_Optional_destruct_base"*, align 8
  %7 = getelementptr inbounds %"struct.std::in_place_t", %"struct.std::in_place_t"* %4, i32 0, i32 0
  store i8 %1, i8* %7, align 1
  store i32* %2, i32** %5, align 8
  call void @llvm.dbg.declare(metadata i32** %5, metadata !3446, metadata !DIExpression()), !dbg !3447
  call void @llvm.dbg.declare(metadata %"struct.std::in_place_t"* %4, metadata !3448, metadata !DIExpression()), !dbg !3449
  store %"struct.std::_Optional_destruct_base"* %0, %"struct.std::_Optional_destruct_base"** %6, align 8
  call void @llvm.dbg.declare(metadata %"struct.std::_Optional_destruct_base"** %6, metadata !3450, metadata !DIExpression()), !dbg !3452
  %8 = load %"struct.std::_Optional_destruct_base"*, %"struct.std::_Optional_destruct_base"** %6, align 8
  %9 = getelementptr inbounds %"struct.std::_Optional_destruct_base", %"struct.std::_Optional_destruct_base"* %8, i32 0, i32 0, !dbg !3453
  %10 = bitcast %union.anon* %9 to i32*, !dbg !3453
  %11 = load i32*, i32** %5, align 8, !dbg !3454
  %12 = call nonnull align 4 dereferenceable(4) i32* @"??$forward@H@std@@YA$$QEAHAEAH@Z"(i32* nonnull align 4 dereferenceable(4) %11) #5, !dbg !3455
  %13 = load i32, i32* %12, align 4, !dbg !3455
  store i32 %13, i32* %10, align 4, !dbg !3453
  %14 = getelementptr inbounds %"struct.std::_Optional_destruct_base", %"struct.std::_Optional_destruct_base"* %8, i32 0, i32 1, !dbg !3456
  store i8 1, i8* %14, align 4, !dbg !3456
  ret %"struct.std::_Optional_destruct_base"* %8, !dbg !3457
}

; Function Attrs: noinline optnone uwtable
define linkonce_odr dso_local %"struct.tl::detail::expected_move_assign_base"* @"??0?$expected_move_assign_base@HH$00@detail@tl@@QEAA@XZ"(%"struct.tl::detail::expected_move_assign_base"* returned %0) unnamed_addr #0 comdat align 2 !dbg !3458 {
  %2 = alloca %"struct.tl::detail::expected_move_assign_base"*, align 8
  store %"struct.tl::detail::expected_move_assign_base"* %0, %"struct.tl::detail::expected_move_assign_base"** %2, align 8
  call void @llvm.dbg.declare(metadata %"struct.tl::detail::expected_move_assign_base"** %2, metadata !3463, metadata !DIExpression()), !dbg !3465
  %3 = load %"struct.tl::detail::expected_move_assign_base"*, %"struct.tl::detail::expected_move_assign_base"** %2, align 8
  %4 = bitcast %"struct.tl::detail::expected_move_assign_base"* %3 to %"struct.tl::detail::expected_copy_assign_base"*, !dbg !3466
  %5 = call %"struct.tl::detail::expected_copy_assign_base"* @"??0?$expected_copy_assign_base@HH$00@detail@tl@@QEAA@XZ"(%"struct.tl::detail::expected_copy_assign_base"* %4), !dbg !3466
  ret %"struct.tl::detail::expected_move_assign_base"* %3, !dbg !3466
}

; Function Attrs: noinline optnone uwtable
define linkonce_odr dso_local %"struct.tl::detail::expected_copy_assign_base"* @"??0?$expected_copy_assign_base@HH$00@detail@tl@@QEAA@XZ"(%"struct.tl::detail::expected_copy_assign_base"* returned %0) unnamed_addr #0 comdat align 2 !dbg !3467 {
  %2 = alloca %"struct.tl::detail::expected_copy_assign_base"*, align 8
  store %"struct.tl::detail::expected_copy_assign_base"* %0, %"struct.tl::detail::expected_copy_assign_base"** %2, align 8
  call void @llvm.dbg.declare(metadata %"struct.tl::detail::expected_copy_assign_base"** %2, metadata !3472, metadata !DIExpression()), !dbg !3474
  %3 = load %"struct.tl::detail::expected_copy_assign_base"*, %"struct.tl::detail::expected_copy_assign_base"** %2, align 8
  %4 = bitcast %"struct.tl::detail::expected_copy_assign_base"* %3 to %"struct.tl::detail::expected_move_base"*, !dbg !3475
  %5 = call %"struct.tl::detail::expected_move_base"* @"??0?$expected_move_base@HH$00@detail@tl@@QEAA@XZ"(%"struct.tl::detail::expected_move_base"* %4), !dbg !3475
  ret %"struct.tl::detail::expected_copy_assign_base"* %3, !dbg !3475
}

; Function Attrs: noinline optnone uwtable
define linkonce_odr dso_local %"struct.tl::detail::expected_move_base"* @"??0?$expected_move_base@HH$00@detail@tl@@QEAA@XZ"(%"struct.tl::detail::expected_move_base"* returned %0) unnamed_addr #0 comdat align 2 !dbg !3476 {
  %2 = alloca %"struct.tl::detail::expected_move_base"*, align 8
  store %"struct.tl::detail::expected_move_base"* %0, %"struct.tl::detail::expected_move_base"** %2, align 8
  call void @llvm.dbg.declare(metadata %"struct.tl::detail::expected_move_base"** %2, metadata !3481, metadata !DIExpression()), !dbg !3483
  %3 = load %"struct.tl::detail::expected_move_base"*, %"struct.tl::detail::expected_move_base"** %2, align 8
  %4 = bitcast %"struct.tl::detail::expected_move_base"* %3 to %"struct.tl::detail::expected_copy_base"*, !dbg !3484
  %5 = call %"struct.tl::detail::expected_copy_base"* @"??0?$expected_copy_base@HH$00@detail@tl@@QEAA@XZ"(%"struct.tl::detail::expected_copy_base"* %4), !dbg !3484
  ret %"struct.tl::detail::expected_move_base"* %3, !dbg !3484
}

; Function Attrs: noinline optnone uwtable
define linkonce_odr dso_local %"struct.tl::detail::expected_copy_base"* @"??0?$expected_copy_base@HH$00@detail@tl@@QEAA@XZ"(%"struct.tl::detail::expected_copy_base"* returned %0) unnamed_addr #0 comdat align 2 !dbg !3485 {
  %2 = alloca %"struct.tl::detail::expected_copy_base"*, align 8
  store %"struct.tl::detail::expected_copy_base"* %0, %"struct.tl::detail::expected_copy_base"** %2, align 8
  call void @llvm.dbg.declare(metadata %"struct.tl::detail::expected_copy_base"** %2, metadata !3490, metadata !DIExpression()), !dbg !3492
  %3 = load %"struct.tl::detail::expected_copy_base"*, %"struct.tl::detail::expected_copy_base"** %2, align 8
  %4 = bitcast %"struct.tl::detail::expected_copy_base"* %3 to %"struct.tl::detail::expected_operations_base"*, !dbg !3493
  %5 = call %"struct.tl::detail::expected_operations_base"* @"??0?$expected_operations_base@HH@detail@tl@@QEAA@XZ"(%"struct.tl::detail::expected_operations_base"* %4), !dbg !3493
  ret %"struct.tl::detail::expected_copy_base"* %3, !dbg !3493
}

; Function Attrs: noinline optnone uwtable
define linkonce_odr dso_local %"struct.tl::detail::expected_operations_base"* @"??0?$expected_operations_base@HH@detail@tl@@QEAA@XZ"(%"struct.tl::detail::expected_operations_base"* returned %0) unnamed_addr #0 comdat align 2 !dbg !3494 {
  %2 = alloca %"struct.tl::detail::expected_operations_base"*, align 8
  store %"struct.tl::detail::expected_operations_base"* %0, %"struct.tl::detail::expected_operations_base"** %2, align 8
  call void @llvm.dbg.declare(metadata %"struct.tl::detail::expected_operations_base"** %2, metadata !3496, metadata !DIExpression()), !dbg !3498
  %3 = load %"struct.tl::detail::expected_operations_base"*, %"struct.tl::detail::expected_operations_base"** %2, align 8
  %4 = bitcast %"struct.tl::detail::expected_operations_base"* %3 to %"struct.tl::detail::expected_storage_base"*, !dbg !3499
  %5 = call %"struct.tl::detail::expected_storage_base"* @"??0?$expected_storage_base@HH$00$00@detail@tl@@QEAA@XZ"(%"struct.tl::detail::expected_storage_base"* %4), !dbg !3499
  ret %"struct.tl::detail::expected_operations_base"* %3, !dbg !3499
}

; Function Attrs: noinline optnone uwtable
define linkonce_odr dso_local %"struct.tl::detail::expected_storage_base"* @"??0?$expected_storage_base@HH$00$00@detail@tl@@QEAA@XZ"(%"struct.tl::detail::expected_storage_base"* returned %0) unnamed_addr #0 comdat align 2 !dbg !3500 {
  %2 = alloca %"struct.tl::detail::expected_storage_base"*, align 8
  store %"struct.tl::detail::expected_storage_base"* %0, %"struct.tl::detail::expected_storage_base"** %2, align 8
  call void @llvm.dbg.declare(metadata %"struct.tl::detail::expected_storage_base"** %2, metadata !3501, metadata !DIExpression()), !dbg !3503
  %3 = load %"struct.tl::detail::expected_storage_base"*, %"struct.tl::detail::expected_storage_base"** %2, align 8
  %4 = getelementptr inbounds %"struct.tl::detail::expected_storage_base", %"struct.tl::detail::expected_storage_base"* %3, i32 0, i32 0, !dbg !3504
  %5 = bitcast %union.anon.1* %4 to i32*, !dbg !3504
  store i32 0, i32* %5, align 4, !dbg !3504
  %6 = getelementptr inbounds %"struct.tl::detail::expected_storage_base", %"struct.tl::detail::expected_storage_base"* %3, i32 0, i32 1, !dbg !3505
  store i8 1, i8* %6, align 4, !dbg !3505
  ret %"struct.tl::detail::expected_storage_base"* %3, !dbg !3506
}

; Function Attrs: noinline optnone uwtable
define linkonce_odr dso_local nonnull align 4 dereferenceable(4) %"class.tl::unexpected"* @"?err@?$expected@HH@tl@@AEAAAEAV?$unexpected@H@2@XZ"(%"class.tl::expected"* %0) #0 comdat align 2 !dbg !3507 {
  %2 = alloca %"class.tl::expected"*, align 8
  store %"class.tl::expected"* %0, %"class.tl::expected"** %2, align 8
  call void @llvm.dbg.declare(metadata %"class.tl::expected"** %2, metadata !3508, metadata !DIExpression()), !dbg !3509
  %3 = load %"class.tl::expected"*, %"class.tl::expected"** %2, align 8
  %4 = bitcast %"class.tl::expected"* %3 to %"struct.tl::detail::expected_storage_base"*, !dbg !3510
  %5 = getelementptr inbounds %"struct.tl::detail::expected_storage_base", %"struct.tl::detail::expected_storage_base"* %4, i32 0, i32 0, !dbg !3510
  %6 = bitcast %union.anon.1* %5 to %"class.tl::unexpected"*, !dbg !3510
  ret %"class.tl::unexpected"* %6, !dbg !3511
}

; Function Attrs: noinline optnone uwtable
define linkonce_odr dso_local nonnull align 4 dereferenceable(4) i32* @"?value@?$unexpected@H@tl@@QEGAAAEAHXZ"(%"class.tl::unexpected"* %0) #0 comdat align 2 !dbg !3512 {
  %2 = alloca %"class.tl::unexpected"*, align 8
  store %"class.tl::unexpected"* %0, %"class.tl::unexpected"** %2, align 8
  call void @llvm.dbg.declare(metadata %"class.tl::unexpected"** %2, metadata !3513, metadata !DIExpression()), !dbg !3514
  %3 = load %"class.tl::unexpected"*, %"class.tl::unexpected"** %2, align 8
  %4 = getelementptr inbounds %"class.tl::unexpected", %"class.tl::unexpected"* %3, i32 0, i32 0, !dbg !3515
  ret i32* %4, !dbg !3516
}

; Function Attrs: nounwind
declare void @llvm.va_start(i8*) #5

; Function Attrs: noinline optnone uwtable
define linkonce_odr dso_local i32 @_vfprintf_l(%struct._iobuf* %0, i8* %1, %struct.__crt_locale_pointers* %2, i8* %3) #0 comdat !dbg !3517 {
  %5 = alloca i8*, align 8
  %6 = alloca %struct.__crt_locale_pointers*, align 8
  %7 = alloca i8*, align 8
  %8 = alloca %struct._iobuf*, align 8
  store i8* %3, i8** %5, align 8
  call void @llvm.dbg.declare(metadata i8** %5, metadata !3532, metadata !DIExpression()), !dbg !3533
  store %struct.__crt_locale_pointers* %2, %struct.__crt_locale_pointers** %6, align 8
  call void @llvm.dbg.declare(metadata %struct.__crt_locale_pointers** %6, metadata !3534, metadata !DIExpression()), !dbg !3535
  store i8* %1, i8** %7, align 8
  call void @llvm.dbg.declare(metadata i8** %7, metadata !3536, metadata !DIExpression()), !dbg !3537
  store %struct._iobuf* %0, %struct._iobuf** %8, align 8
  call void @llvm.dbg.declare(metadata %struct._iobuf** %8, metadata !3538, metadata !DIExpression()), !dbg !3539
  %9 = load i8*, i8** %5, align 8, !dbg !3540
  %10 = load %struct.__crt_locale_pointers*, %struct.__crt_locale_pointers** %6, align 8, !dbg !3541
  %11 = load i8*, i8** %7, align 8, !dbg !3542
  %12 = load %struct._iobuf*, %struct._iobuf** %8, align 8, !dbg !3543
  %13 = call i64* @__local_stdio_printf_options(), !dbg !3544
  %14 = load i64, i64* %13, align 8, !dbg !3544
  %15 = call i32 @__stdio_common_vfprintf(i64 %14, %struct._iobuf* %12, i8* %11, %struct.__crt_locale_pointers* %10, i8* %9), !dbg !3545
  ret i32 %15, !dbg !3546
}

declare dso_local %struct._iobuf* @__acrt_iob_func(i32) #6

declare dso_local i32 @__stdio_common_vfprintf(i64, %struct._iobuf*, i8*, %struct.__crt_locale_pointers*, i8*) #6

; Function Attrs: noinline optnone uwtable
define linkonce_odr dso_local i64* @__local_stdio_printf_options() #0 comdat !dbg !19 {
  ret i64* @"?_OptionsStorage@?1??__local_stdio_printf_options@@9@4_KA", !dbg !3547
}

; Function Attrs: noinline nounwind optnone uwtable
define linkonce_odr dso_local %"class.std::_Ptr_base"* @"??0?$_Ptr_base@H@std@@IEAA@XZ"(%"class.std::_Ptr_base"* returned %0) unnamed_addr #1 comdat align 2 !dbg !3548 {
  %2 = alloca %"class.std::_Ptr_base"*, align 8
  store %"class.std::_Ptr_base"* %0, %"class.std::_Ptr_base"** %2, align 8
  call void @llvm.dbg.declare(metadata %"class.std::_Ptr_base"** %2, metadata !3549, metadata !DIExpression()), !dbg !3551
  %3 = load %"class.std::_Ptr_base"*, %"class.std::_Ptr_base"** %2, align 8
  %4 = getelementptr inbounds %"class.std::_Ptr_base", %"class.std::_Ptr_base"* %3, i32 0, i32 0, !dbg !3552
  store i32* null, i32** %4, align 8, !dbg !3552
  %5 = getelementptr inbounds %"class.std::_Ptr_base", %"class.std::_Ptr_base"* %3, i32 0, i32 1, !dbg !3553
  store %"class.std::_Ref_count_base"* null, %"class.std::_Ref_count_base"** %5, align 8, !dbg !3553
  ret %"class.std::_Ptr_base"* %3, !dbg !3554
}

; Function Attrs: noinline nounwind optnone uwtable
define linkonce_odr dso_local %"class.std::_Compressed_pair.3"* @"??$?0$$V@?$_Compressed_pair@U?$default_delete@H@std@@PEAH$00@std@@QEAA@U_Zero_then_variadic_args_t@1@@Z"(%"class.std::_Compressed_pair.3"* returned %0, i8 %1) unnamed_addr #1 comdat align 2 !dbg !3555 {
  %3 = alloca %"struct.std::_Zero_then_variadic_args_t", align 1
  %4 = alloca %"class.std::_Compressed_pair.3"*, align 8
  %5 = getelementptr inbounds %"struct.std::_Zero_then_variadic_args_t", %"struct.std::_Zero_then_variadic_args_t"* %3, i32 0, i32 0
  store i8 %1, i8* %5, align 1
  call void @llvm.dbg.declare(metadata %"struct.std::_Zero_then_variadic_args_t"* %3, metadata !3559, metadata !DIExpression()), !dbg !3560
  store %"class.std::_Compressed_pair.3"* %0, %"class.std::_Compressed_pair.3"** %4, align 8
  call void @llvm.dbg.declare(metadata %"class.std::_Compressed_pair.3"** %4, metadata !3561, metadata !DIExpression()), !dbg !3563
  %6 = load %"class.std::_Compressed_pair.3"*, %"class.std::_Compressed_pair.3"** %4, align 8
  %7 = bitcast %"class.std::_Compressed_pair.3"* %6 to %"struct.std::default_delete.4"*, !dbg !3564
  %8 = getelementptr inbounds %"class.std::_Compressed_pair.3", %"class.std::_Compressed_pair.3"* %6, i32 0, i32 0, !dbg !3565
  store i32* null, i32** %8, align 8, !dbg !3565
  ret %"class.std::_Compressed_pair.3"* %6, !dbg !3566
}

; Function Attrs: noinline nounwind optnone uwtable
define linkonce_odr dso_local void @"?_Tidy_deallocate@?$basic_string@DU?$char_traits@D@std@@V?$allocator@D@2@@std@@AEAAXXZ"(%"class.std::basic_string"* %0) #1 comdat align 2 personality i8* bitcast (i32 (...)* @__CxxFrameHandler3 to i8*) !dbg !3567 {
  %2 = alloca %"class.std::basic_string"*, align 8
  %3 = alloca i8*, align 8
  %4 = alloca %"class.std::allocator"*, align 8
  %5 = alloca i8, align 1
  store %"class.std::basic_string"* %0, %"class.std::basic_string"** %2, align 8
  call void @llvm.dbg.declare(metadata %"class.std::basic_string"** %2, metadata !3568, metadata !DIExpression()), !dbg !3569
  %6 = load %"class.std::basic_string"*, %"class.std::basic_string"** %2, align 8
  %7 = getelementptr inbounds %"class.std::basic_string", %"class.std::basic_string"* %6, i32 0, i32 0, !dbg !3570
  %8 = getelementptr inbounds %"class.std::_Compressed_pair.0", %"class.std::_Compressed_pair.0"* %7, i32 0, i32 0, !dbg !3571
  %9 = bitcast %"class.std::_String_val"* %8 to %"struct.std::_Container_base0"*, !dbg !3570
  call void @"?_Orphan_all@_Container_base0@std@@QEAAXXZ"(%"struct.std::_Container_base0"* %9) #5, !dbg !3572
  %10 = getelementptr inbounds %"class.std::basic_string", %"class.std::basic_string"* %6, i32 0, i32 0, !dbg !3573
  %11 = getelementptr inbounds %"class.std::_Compressed_pair.0", %"class.std::_Compressed_pair.0"* %10, i32 0, i32 0, !dbg !3575
  %12 = call zeroext i1 @"?_Large_string_engaged@?$_String_val@U?$_Simple_types@D@std@@@std@@QEBA_NXZ"(%"class.std::_String_val"* %11) #5, !dbg !3576
  br i1 %12, label %13, label %32, !dbg !3577

13:                                               ; preds = %1
  call void @llvm.dbg.declare(metadata i8** %3, metadata !3578, metadata !DIExpression()), !dbg !3582
  %14 = getelementptr inbounds %"class.std::basic_string", %"class.std::basic_string"* %6, i32 0, i32 0, !dbg !3583
  %15 = getelementptr inbounds %"class.std::_Compressed_pair.0", %"class.std::_Compressed_pair.0"* %14, i32 0, i32 0, !dbg !3584
  %16 = getelementptr inbounds %"class.std::_String_val", %"class.std::_String_val"* %15, i32 0, i32 0, !dbg !3585
  %17 = bitcast %"union.std::_String_val<std::_Simple_types<char>>::_Bxty"* %16 to i8**, !dbg !3586
  %18 = load i8*, i8** %17, align 8, !dbg !3586
  store i8* %18, i8** %3, align 8, !dbg !3582
  call void @llvm.dbg.declare(metadata %"class.std::allocator"** %4, metadata !3587, metadata !DIExpression()), !dbg !3588
  %19 = call nonnull align 1 dereferenceable(1) %"class.std::allocator"* @"?_Getal@?$basic_string@DU?$char_traits@D@std@@V?$allocator@D@2@@std@@AEAAAEAV?$allocator@D@2@XZ"(%"class.std::basic_string"* %6) #5, !dbg !3589
  store %"class.std::allocator"* %19, %"class.std::allocator"** %4, align 8, !dbg !3588
  %20 = getelementptr inbounds %"class.std::basic_string", %"class.std::basic_string"* %6, i32 0, i32 0, !dbg !3590
  %21 = getelementptr inbounds %"class.std::_Compressed_pair.0", %"class.std::_Compressed_pair.0"* %20, i32 0, i32 0, !dbg !3591
  %22 = getelementptr inbounds %"class.std::_String_val", %"class.std::_String_val"* %21, i32 0, i32 0, !dbg !3592
  %23 = bitcast %"union.std::_String_val<std::_Simple_types<char>>::_Bxty"* %22 to i8**, !dbg !3593
  call void @"??$_Destroy_in_place@PEAD@std@@YAXAEAPEAD@Z"(i8** nonnull align 8 dereferenceable(8) %23) #5, !dbg !3594
  %24 = load %"class.std::allocator"*, %"class.std::allocator"** %4, align 8, !dbg !3595
  %25 = getelementptr inbounds %"class.std::basic_string", %"class.std::basic_string"* %6, i32 0, i32 0, !dbg !3596
  %26 = getelementptr inbounds %"class.std::_Compressed_pair.0", %"class.std::_Compressed_pair.0"* %25, i32 0, i32 0, !dbg !3597
  %27 = getelementptr inbounds %"class.std::_String_val", %"class.std::_String_val"* %26, i32 0, i32 2, !dbg !3598
  %28 = load i64, i64* %27, align 8, !dbg !3598
  %29 = add i64 %28, 1, !dbg !3599
  %30 = load i8*, i8** %3, align 8, !dbg !3600
  invoke void @"?deallocate@?$allocator@D@std@@QEAAXQEAD_K@Z"(%"class.std::allocator"* %24, i8* %30, i64 %29)
          to label %31 unwind label %44, !dbg !3601

31:                                               ; preds = %13
  br label %32, !dbg !3602

32:                                               ; preds = %31, %1
  %33 = getelementptr inbounds %"class.std::basic_string", %"class.std::basic_string"* %6, i32 0, i32 0, !dbg !3603
  %34 = getelementptr inbounds %"class.std::_Compressed_pair.0", %"class.std::_Compressed_pair.0"* %33, i32 0, i32 0, !dbg !3604
  %35 = getelementptr inbounds %"class.std::_String_val", %"class.std::_String_val"* %34, i32 0, i32 1, !dbg !3605
  store i64 0, i64* %35, align 8, !dbg !3606
  %36 = getelementptr inbounds %"class.std::basic_string", %"class.std::basic_string"* %6, i32 0, i32 0, !dbg !3607
  %37 = getelementptr inbounds %"class.std::_Compressed_pair.0", %"class.std::_Compressed_pair.0"* %36, i32 0, i32 0, !dbg !3608
  %38 = getelementptr inbounds %"class.std::_String_val", %"class.std::_String_val"* %37, i32 0, i32 2, !dbg !3609
  store i64 15, i64* %38, align 8, !dbg !3610
  store i8 0, i8* %5, align 1, !dbg !3611
  %39 = getelementptr inbounds %"class.std::basic_string", %"class.std::basic_string"* %6, i32 0, i32 0, !dbg !3612
  %40 = getelementptr inbounds %"class.std::_Compressed_pair.0", %"class.std::_Compressed_pair.0"* %39, i32 0, i32 0, !dbg !3613
  %41 = getelementptr inbounds %"class.std::_String_val", %"class.std::_String_val"* %40, i32 0, i32 0, !dbg !3614
  %42 = bitcast %"union.std::_String_val<std::_Simple_types<char>>::_Bxty"* %41 to [16 x i8]*, !dbg !3615
  %43 = getelementptr inbounds [16 x i8], [16 x i8]* %42, i64 0, i64 0, !dbg !3612
  call void @"?assign@?$_Narrow_char_traits@DH@std@@SAXAEADAEBD@Z"(i8* nonnull align 1 dereferenceable(1) %43, i8* nonnull align 1 dereferenceable(1) %5) #5, !dbg !3616
  ret void, !dbg !3617

44:                                               ; preds = %13
  %45 = cleanuppad within none [], !dbg !3601
  call void @__std_terminate() #18 [ "funclet"(token %45) ], !dbg !3601
  unreachable, !dbg !3601
}

; Function Attrs: noinline nounwind optnone uwtable
define linkonce_odr dso_local void @"??1?$_Compressed_pair@V?$allocator@D@std@@V?$_String_val@U?$_Simple_types@D@std@@@2@$00@std@@QEAA@XZ"(%"class.std::_Compressed_pair.0"* %0) unnamed_addr #1 comdat align 2 !dbg !3618 {
  %2 = alloca %"class.std::_Compressed_pair.0"*, align 8
  store %"class.std::_Compressed_pair.0"* %0, %"class.std::_Compressed_pair.0"** %2, align 8
  call void @llvm.dbg.declare(metadata %"class.std::_Compressed_pair.0"** %2, metadata !3622, metadata !DIExpression()), !dbg !3624
  %3 = load %"class.std::_Compressed_pair.0"*, %"class.std::_Compressed_pair.0"** %2, align 8
  %4 = getelementptr inbounds %"class.std::_Compressed_pair.0", %"class.std::_Compressed_pair.0"* %3, i32 0, i32 0, !dbg !3625
  call void @"??1?$_String_val@U?$_Simple_types@D@std@@@std@@QEAA@XZ"(%"class.std::_String_val"* %4) #5, !dbg !3625
  ret void, !dbg !3627
}

; Function Attrs: noinline nounwind optnone uwtable
define linkonce_odr dso_local void @"?_Orphan_all@_Container_base0@std@@QEAAXXZ"(%"struct.std::_Container_base0"* %0) #1 comdat align 2 !dbg !3628 {
  %2 = alloca %"struct.std::_Container_base0"*, align 8
  store %"struct.std::_Container_base0"* %0, %"struct.std::_Container_base0"** %2, align 8
  call void @llvm.dbg.declare(metadata %"struct.std::_Container_base0"** %2, metadata !3629, metadata !DIExpression()), !dbg !3630
  %3 = load %"struct.std::_Container_base0"*, %"struct.std::_Container_base0"** %2, align 8
  ret void, !dbg !3631
}

; Function Attrs: noinline nounwind optnone uwtable
define linkonce_odr dso_local zeroext i1 @"?_Large_string_engaged@?$_String_val@U?$_Simple_types@D@std@@@std@@QEBA_NXZ"(%"class.std::_String_val"* %0) #1 comdat align 2 !dbg !3632 {
  %2 = alloca %"class.std::_String_val"*, align 8
  store %"class.std::_String_val"* %0, %"class.std::_String_val"** %2, align 8
  call void @llvm.dbg.declare(metadata %"class.std::_String_val"** %2, metadata !3633, metadata !DIExpression()), !dbg !3635
  %3 = load %"class.std::_String_val"*, %"class.std::_String_val"** %2, align 8
  %4 = getelementptr inbounds %"class.std::_String_val", %"class.std::_String_val"* %3, i32 0, i32 2, !dbg !3636
  %5 = load i64, i64* %4, align 8, !dbg !3636
  %6 = icmp ule i64 16, %5, !dbg !3637
  ret i1 %6, !dbg !3638
}

; Function Attrs: noinline nounwind optnone uwtable
define linkonce_odr dso_local nonnull align 1 dereferenceable(1) %"class.std::allocator"* @"?_Getal@?$basic_string@DU?$char_traits@D@std@@V?$allocator@D@2@@std@@AEAAAEAV?$allocator@D@2@XZ"(%"class.std::basic_string"* %0) #1 comdat align 2 !dbg !3639 {
  %2 = alloca %"class.std::basic_string"*, align 8
  store %"class.std::basic_string"* %0, %"class.std::basic_string"** %2, align 8
  call void @llvm.dbg.declare(metadata %"class.std::basic_string"** %2, metadata !3640, metadata !DIExpression()), !dbg !3641
  %3 = load %"class.std::basic_string"*, %"class.std::basic_string"** %2, align 8
  %4 = getelementptr inbounds %"class.std::basic_string", %"class.std::basic_string"* %3, i32 0, i32 0, !dbg !3642
  %5 = call nonnull align 1 dereferenceable(1) %"class.std::allocator"* @"?_Get_first@?$_Compressed_pair@V?$allocator@D@std@@V?$_String_val@U?$_Simple_types@D@std@@@2@$00@std@@QEAAAEAV?$allocator@D@2@XZ"(%"class.std::_Compressed_pair.0"* %4) #5, !dbg !3643
  ret %"class.std::allocator"* %5, !dbg !3644
}

; Function Attrs: noinline nounwind optnone uwtable
define linkonce_odr dso_local void @"??$_Destroy_in_place@PEAD@std@@YAXAEAPEAD@Z"(i8** nonnull align 8 dereferenceable(8) %0) #1 comdat !dbg !3645 {
  %2 = alloca i8**, align 8
  store i8** %0, i8*** %2, align 8
  call void @llvm.dbg.declare(metadata i8*** %2, metadata !3651, metadata !DIExpression()), !dbg !3652
  %3 = load i8**, i8*** %2, align 8, !dbg !3653
  ret void, !dbg !3654
}

; Function Attrs: noinline optnone uwtable
define linkonce_odr dso_local void @"?deallocate@?$allocator@D@std@@QEAAXQEAD_K@Z"(%"class.std::allocator"* %0, i8* %1, i64 %2) #0 comdat align 2 !dbg !3655 {
  %4 = alloca i64, align 8
  %5 = alloca i8*, align 8
  %6 = alloca %"class.std::allocator"*, align 8
  store i64 %2, i64* %4, align 8
  call void @llvm.dbg.declare(metadata i64* %4, metadata !3656, metadata !DIExpression()), !dbg !3657
  store i8* %1, i8** %5, align 8
  call void @llvm.dbg.declare(metadata i8** %5, metadata !3658, metadata !DIExpression()), !dbg !3659
  store %"class.std::allocator"* %0, %"class.std::allocator"** %6, align 8
  call void @llvm.dbg.declare(metadata %"class.std::allocator"** %6, metadata !3660, metadata !DIExpression()), !dbg !3662
  %7 = load %"class.std::allocator"*, %"class.std::allocator"** %6, align 8
  %8 = load i64, i64* %4, align 8, !dbg !3663
  %9 = mul i64 1, %8, !dbg !3664
  %10 = load i8*, i8** %5, align 8, !dbg !3665
  call void @"??$_Deallocate@$0BA@$0A@@std@@YAXPEAX_K@Z"(i8* %10, i64 %9) #5, !dbg !3666
  ret void, !dbg !3667
}

declare dso_local void @__std_terminate()

; Function Attrs: noinline nounwind optnone uwtable
define linkonce_odr dso_local void @"?assign@?$_Narrow_char_traits@DH@std@@SAXAEADAEBD@Z"(i8* nonnull align 1 dereferenceable(1) %0, i8* nonnull align 1 dereferenceable(1) %1) #1 comdat align 2 !dbg !3668 {
  %3 = alloca i8*, align 8
  %4 = alloca i8*, align 8
  store i8* %1, i8** %3, align 8
  call void @llvm.dbg.declare(metadata i8** %3, metadata !3669, metadata !DIExpression()), !dbg !3670
  store i8* %0, i8** %4, align 8
  call void @llvm.dbg.declare(metadata i8** %4, metadata !3671, metadata !DIExpression()), !dbg !3672
  %5 = load i8*, i8** %3, align 8, !dbg !3673
  %6 = load i8, i8* %5, align 1, !dbg !3673
  %7 = load i8*, i8** %4, align 8, !dbg !3674
  store i8 %6, i8* %7, align 1, !dbg !3675
  ret void, !dbg !3676
}

; Function Attrs: noinline nounwind optnone uwtable
define linkonce_odr dso_local nonnull align 1 dereferenceable(1) %"class.std::allocator"* @"?_Get_first@?$_Compressed_pair@V?$allocator@D@std@@V?$_String_val@U?$_Simple_types@D@std@@@2@$00@std@@QEAAAEAV?$allocator@D@2@XZ"(%"class.std::_Compressed_pair.0"* %0) #1 comdat align 2 !dbg !3677 {
  %2 = alloca %"class.std::_Compressed_pair.0"*, align 8
  store %"class.std::_Compressed_pair.0"* %0, %"class.std::_Compressed_pair.0"** %2, align 8
  call void @llvm.dbg.declare(metadata %"class.std::_Compressed_pair.0"** %2, metadata !3678, metadata !DIExpression()), !dbg !3679
  %3 = load %"class.std::_Compressed_pair.0"*, %"class.std::_Compressed_pair.0"** %2, align 8
  %4 = bitcast %"class.std::_Compressed_pair.0"* %3 to %"class.std::allocator"*, !dbg !3680
  ret %"class.std::allocator"* %4, !dbg !3681
}

; Function Attrs: noinline nounwind optnone uwtable
define linkonce_odr dso_local void @"??$_Deallocate@$0BA@$0A@@std@@YAXPEAX_K@Z"(i8* %0, i64 %1) #1 comdat personality i8* bitcast (i32 (...)* @__CxxFrameHandler3 to i8*) !dbg !3682 {
  %3 = alloca i64, align 8
  %4 = alloca i8*, align 8
  store i64 %1, i64* %3, align 8
  call void @llvm.dbg.declare(metadata i64* %3, metadata !3687, metadata !DIExpression()), !dbg !3688
  store i8* %0, i8** %4, align 8
  call void @llvm.dbg.declare(metadata i8** %4, metadata !3689, metadata !DIExpression()), !dbg !3690
  %5 = load i64, i64* %3, align 8, !dbg !3691
  %6 = icmp uge i64 %5, 4096, !dbg !3693
  br i1 %6, label %7, label %9, !dbg !3694

7:                                                ; preds = %2
  invoke void @"?_Adjust_manually_vector_aligned@std@@YAXAEAPEAXAEA_K@Z"(i8** nonnull align 8 dereferenceable(8) %4, i64* nonnull align 8 dereferenceable(8) %3)
          to label %8 unwind label %12, !dbg !3695

8:                                                ; preds = %7
  br label %9, !dbg !3697

9:                                                ; preds = %8, %2
  %10 = load i64, i64* %3, align 8, !dbg !3698
  %11 = load i8*, i8** %4, align 8, !dbg !3699
  call void @"??3@YAXPEAX_K@Z"(i8* %11, i64 %10) #5, !dbg !3700
  ret void, !dbg !3701

12:                                               ; preds = %7
  %13 = cleanuppad within none [], !dbg !3695
  call void @__std_terminate() #18 [ "funclet"(token %13) ], !dbg !3695
  unreachable, !dbg !3695
}

; Function Attrs: noinline optnone uwtable
define linkonce_odr dso_local void @"?_Adjust_manually_vector_aligned@std@@YAXAEAPEAXAEA_K@Z"(i8** nonnull align 8 dereferenceable(8) %0, i64* nonnull align 8 dereferenceable(8) %1) #0 comdat !dbg !3702 {
  %3 = alloca i64*, align 8
  %4 = alloca i8**, align 8
  %5 = alloca i64*, align 8
  %6 = alloca i64, align 8
  %7 = alloca i64, align 8
  %8 = alloca i64, align 8
  store i64* %1, i64** %3, align 8
  call void @llvm.dbg.declare(metadata i64** %3, metadata !3707, metadata !DIExpression()), !dbg !3708
  store i8** %0, i8*** %4, align 8
  call void @llvm.dbg.declare(metadata i8*** %4, metadata !3709, metadata !DIExpression()), !dbg !3710
  %9 = load i64*, i64** %3, align 8, !dbg !3711
  %10 = load i64, i64* %9, align 8, !dbg !3712
  %11 = add i64 %10, 39, !dbg !3712
  store i64 %11, i64* %9, align 8, !dbg !3712
  call void @llvm.dbg.declare(metadata i64** %5, metadata !3713, metadata !DIExpression()), !dbg !3717
  %12 = load i8**, i8*** %4, align 8, !dbg !3718
  %13 = load i8*, i8** %12, align 8, !dbg !3718
  %14 = bitcast i8* %13 to i64*, !dbg !3719
  store i64* %14, i64** %5, align 8, !dbg !3717
  call void @llvm.dbg.declare(metadata i64* %6, metadata !3720, metadata !DIExpression()), !dbg !3721
  %15 = load i64*, i64** %5, align 8, !dbg !3722
  %16 = getelementptr inbounds i64, i64* %15, i64 -1, !dbg !3722
  %17 = load i64, i64* %16, align 8, !dbg !3722
  store i64 %17, i64* %6, align 8, !dbg !3721
  call void @llvm.dbg.declare(metadata i64* %7, metadata !3723, metadata !DIExpression()), !dbg !3724
  store i64 8, i64* %7, align 8, !dbg !3724
  call void @llvm.dbg.declare(metadata i64* %8, metadata !3725, metadata !DIExpression()), !dbg !3726
  %18 = load i8**, i8*** %4, align 8, !dbg !3727
  %19 = load i8*, i8** %18, align 8, !dbg !3727
  %20 = ptrtoint i8* %19 to i64, !dbg !3728
  %21 = load i64, i64* %6, align 8, !dbg !3729
  %22 = sub i64 %20, %21, !dbg !3730
  store i64 %22, i64* %8, align 8, !dbg !3726
  br label %23, !dbg !3731

23:                                               ; preds = %2
  %24 = load i64, i64* %8, align 8, !dbg !3732
  %25 = icmp uge i64 %24, 8, !dbg !3732
  br i1 %25, label %26, label %30, !dbg !3732

26:                                               ; preds = %23
  %27 = load i64, i64* %8, align 8, !dbg !3732
  %28 = icmp ule i64 %27, 39, !dbg !3732
  br i1 %28, label %29, label %30, !dbg !3735

29:                                               ; preds = %26
  br label %33, !dbg !3736

30:                                               ; preds = %26, %23
  br label %31, !dbg !3738

31:                                               ; preds = %30
  call void @_invalid_parameter_noinfo_noreturn() #15, !dbg !3740
  unreachable, !dbg !3740

32:                                               ; No predecessors!
  br label %33

33:                                               ; preds = %32, %29
  br label %34, !dbg !3735

34:                                               ; preds = %33
  %35 = load i64, i64* %6, align 8, !dbg !3742
  %36 = inttoptr i64 %35 to i8*, !dbg !3743
  %37 = load i8**, i8*** %4, align 8, !dbg !3744
  store i8* %36, i8** %37, align 8, !dbg !3745
  ret void, !dbg !3746
}

; Function Attrs: nounwind
declare dso_local void @"??3@YAXPEAX_K@Z"(i8*, i64) #7

; Function Attrs: noreturn
declare dso_local void @_invalid_parameter_noinfo_noreturn() #10

; Function Attrs: noinline nounwind optnone uwtable
define linkonce_odr dso_local void @"??1?$_String_val@U?$_Simple_types@D@std@@@std@@QEAA@XZ"(%"class.std::_String_val"* %0) unnamed_addr #1 comdat align 2 !dbg !3747 {
  %2 = alloca %"class.std::_String_val"*, align 8
  store %"class.std::_String_val"* %0, %"class.std::_String_val"** %2, align 8
  call void @llvm.dbg.declare(metadata %"class.std::_String_val"** %2, metadata !3749, metadata !DIExpression()), !dbg !3751
  %3 = load %"class.std::_String_val"*, %"class.std::_String_val"** %2, align 8
  %4 = getelementptr inbounds %"class.std::_String_val", %"class.std::_String_val"* %3, i32 0, i32 0, !dbg !3752
  call void @"??1_Bxty@?$_String_val@U?$_Simple_types@D@std@@@std@@QEAA@XZ"(%"union.std::_String_val<std::_Simple_types<char>>::_Bxty"* %4) #5, !dbg !3752
  ret void, !dbg !3754
}

; Function Attrs: noinline nounwind optnone uwtable
define linkonce_odr dso_local void @"??1_Bxty@?$_String_val@U?$_Simple_types@D@std@@@std@@QEAA@XZ"(%"union.std::_String_val<std::_Simple_types<char>>::_Bxty"* %0) unnamed_addr #1 comdat align 2 !dbg !3755 {
  %2 = alloca %"union.std::_String_val<std::_Simple_types<char>>::_Bxty"*, align 8
  store %"union.std::_String_val<std::_Simple_types<char>>::_Bxty"* %0, %"union.std::_String_val<std::_Simple_types<char>>::_Bxty"** %2, align 8
  call void @llvm.dbg.declare(metadata %"union.std::_String_val<std::_Simple_types<char>>::_Bxty"** %2, metadata !3756, metadata !DIExpression()), !dbg !3758
  %3 = load %"union.std::_String_val<std::_Simple_types<char>>::_Bxty"*, %"union.std::_String_val<std::_Simple_types<char>>::_Bxty"** %2, align 8
  ret void, !dbg !3759
}

; Function Attrs: noinline nounwind optnone uwtable
define linkonce_odr dso_local nonnull align 1 dereferenceable(1) %"struct.std::default_delete"* @"?_Get_first@?$_Compressed_pair@U?$default_delete@VClassWithDestructor@@@std@@PEAVClassWithDestructor@@$00@std@@QEAAAEAU?$default_delete@VClassWithDestructor@@@2@XZ"(%"class.std::_Compressed_pair"* %0) #1 comdat align 2 !dbg !3760 {
  %2 = alloca %"class.std::_Compressed_pair"*, align 8
  store %"class.std::_Compressed_pair"* %0, %"class.std::_Compressed_pair"** %2, align 8
  call void @llvm.dbg.declare(metadata %"class.std::_Compressed_pair"** %2, metadata !3761, metadata !DIExpression()), !dbg !3762
  %3 = load %"class.std::_Compressed_pair"*, %"class.std::_Compressed_pair"** %2, align 8
  %4 = bitcast %"class.std::_Compressed_pair"* %3 to %"struct.std::default_delete"*, !dbg !3763
  ret %"struct.std::default_delete"* %4, !dbg !3764
}

; Function Attrs: noinline nounwind optnone uwtable
define linkonce_odr dso_local void @"??R?$default_delete@VClassWithDestructor@@@std@@QEBAXPEAVClassWithDestructor@@@Z"(%"struct.std::default_delete"* %0, %class.ClassWithDestructor* %1) #1 comdat align 2 !dbg !3765 {
  %3 = alloca %class.ClassWithDestructor*, align 8
  %4 = alloca %"struct.std::default_delete"*, align 8
  store %class.ClassWithDestructor* %1, %class.ClassWithDestructor** %3, align 8
  call void @llvm.dbg.declare(metadata %class.ClassWithDestructor** %3, metadata !3766, metadata !DIExpression()), !dbg !3767
  store %"struct.std::default_delete"* %0, %"struct.std::default_delete"** %4, align 8
  call void @llvm.dbg.declare(metadata %"struct.std::default_delete"** %4, metadata !3768, metadata !DIExpression()), !dbg !3770
  %5 = load %"struct.std::default_delete"*, %"struct.std::default_delete"** %4, align 8
  %6 = load %class.ClassWithDestructor*, %class.ClassWithDestructor** %3, align 8, !dbg !3771
  %7 = icmp eq %class.ClassWithDestructor* %6, null, !dbg !3772
  br i1 %7, label %10, label %8, !dbg !3772

8:                                                ; preds = %2
  call void @"??1ClassWithDestructor@@QEAA@XZ"(%class.ClassWithDestructor* %6) #5, !dbg !3772
  %9 = bitcast %class.ClassWithDestructor* %6 to i8*, !dbg !3772
  call void @"??3@YAXPEAX@Z"(i8* %9) #17, !dbg !3772
  br label %10, !dbg !3772

10:                                               ; preds = %8, %2
  ret void, !dbg !3773
}

; Function Attrs: nobuiltin nounwind
declare dso_local void @"??3@YAXPEAX@Z"(i8*) #11

; Function Attrs: noinline noreturn optnone uwtable
define linkonce_odr dso_local void @"?_Throw_bad_optional_access@std@@YAXXZ"() #12 comdat !dbg !3774 {
  %1 = alloca %"class.std::bad_optional_access", align 8
  %2 = bitcast %"class.std::bad_optional_access"* %1 to i8*, !dbg !3775
  call void @llvm.memset.p0i8.i64(i8* align 8 %2, i8 0, i64 24, i1 false), !dbg !3775
  %3 = call %"class.std::bad_optional_access"* @"??0bad_optional_access@std@@QEAA@XZ"(%"class.std::bad_optional_access"* %1) #5, !dbg !3775
  %4 = bitcast %"class.std::bad_optional_access"* %1 to i8*, !dbg !3775
  call void @_CxxThrowException(i8* %4, %eh.ThrowInfo* @"_TI2?AVbad_optional_access@std@@") #15, !dbg !3775
  unreachable, !dbg !3775
}

; Function Attrs: noinline nounwind optnone uwtable
define linkonce_odr dso_local %"class.std::bad_optional_access"* @"??0bad_optional_access@std@@QEAA@XZ"(%"class.std::bad_optional_access"* returned %0) unnamed_addr #1 comdat align 2 !dbg !3776 {
  %2 = alloca %"class.std::bad_optional_access"*, align 8
  store %"class.std::bad_optional_access"* %0, %"class.std::bad_optional_access"** %2, align 8
  call void @llvm.dbg.declare(metadata %"class.std::bad_optional_access"** %2, metadata !3822, metadata !DIExpression()), !dbg !3824
  %3 = load %"class.std::bad_optional_access"*, %"class.std::bad_optional_access"** %2, align 8
  %4 = bitcast %"class.std::bad_optional_access"* %3 to %"class.std::exception"*, !dbg !3825
  %5 = call %"class.std::exception"* @"??0exception@std@@QEAA@XZ"(%"class.std::exception"* %4) #5, !dbg !3825
  %6 = bitcast %"class.std::bad_optional_access"* %3 to i32 (...)***, !dbg !3825
  store i32 (...)** bitcast (i8** @"??_7bad_optional_access@std@@6B@" to i32 (...)**), i32 (...)*** %6, align 8, !dbg !3825
  ret %"class.std::bad_optional_access"* %3, !dbg !3825
}

; Function Attrs: noinline nounwind optnone uwtable
define linkonce_odr dso_local %"class.std::bad_optional_access"* @"??0bad_optional_access@std@@QEAA@AEBV01@@Z"(%"class.std::bad_optional_access"* returned %0, %"class.std::bad_optional_access"* nonnull align 8 dereferenceable(24) %1) unnamed_addr #1 comdat align 2 !dbg !3826 {
  %3 = alloca %"class.std::bad_optional_access"*, align 8
  %4 = alloca %"class.std::bad_optional_access"*, align 8
  store %"class.std::bad_optional_access"* %1, %"class.std::bad_optional_access"** %3, align 8
  call void @llvm.dbg.declare(metadata %"class.std::bad_optional_access"** %3, metadata !3831, metadata !DIExpression()), !dbg !3832
  store %"class.std::bad_optional_access"* %0, %"class.std::bad_optional_access"** %4, align 8
  call void @llvm.dbg.declare(metadata %"class.std::bad_optional_access"** %4, metadata !3833, metadata !DIExpression()), !dbg !3832
  %5 = load %"class.std::bad_optional_access"*, %"class.std::bad_optional_access"** %4, align 8
  %6 = bitcast %"class.std::bad_optional_access"* %5 to %"class.std::exception"*, !dbg !3834
  %7 = load %"class.std::bad_optional_access"*, %"class.std::bad_optional_access"** %3, align 8, !dbg !3834
  %8 = bitcast %"class.std::bad_optional_access"* %7 to %"class.std::exception"*, !dbg !3834
  %9 = call %"class.std::exception"* @"??0exception@std@@QEAA@AEBV01@@Z"(%"class.std::exception"* %6, %"class.std::exception"* nonnull align 8 dereferenceable(24) %8) #5, !dbg !3834
  %10 = bitcast %"class.std::bad_optional_access"* %5 to i32 (...)***, !dbg !3834
  store i32 (...)** bitcast (i8** @"??_7bad_optional_access@std@@6B@" to i32 (...)**), i32 (...)*** %10, align 8, !dbg !3834
  ret %"class.std::bad_optional_access"* %5, !dbg !3834
}

; Function Attrs: noinline nounwind optnone uwtable
define linkonce_odr dso_local %"class.std::exception"* @"??0exception@std@@QEAA@AEBV01@@Z"(%"class.std::exception"* returned %0, %"class.std::exception"* nonnull align 8 dereferenceable(24) %1) unnamed_addr #1 comdat align 2 personality i8* bitcast (i32 (...)* @__CxxFrameHandler3 to i8*) !dbg !3835 {
  %3 = alloca %"class.std::exception"*, align 8
  %4 = alloca %"class.std::exception"*, align 8
  store %"class.std::exception"* %1, %"class.std::exception"** %3, align 8
  call void @llvm.dbg.declare(metadata %"class.std::exception"** %3, metadata !3836, metadata !DIExpression()), !dbg !3837
  store %"class.std::exception"* %0, %"class.std::exception"** %4, align 8
  call void @llvm.dbg.declare(metadata %"class.std::exception"** %4, metadata !3838, metadata !DIExpression()), !dbg !3840
  %5 = load %"class.std::exception"*, %"class.std::exception"** %4, align 8
  %6 = bitcast %"class.std::exception"* %5 to i32 (...)***, !dbg !3841
  store i32 (...)** bitcast (i8** @"??_7exception@std@@6B@" to i32 (...)**), i32 (...)*** %6, align 8, !dbg !3841
  %7 = getelementptr inbounds %"class.std::exception", %"class.std::exception"* %5, i32 0, i32 1, !dbg !3842
  %8 = bitcast %struct.__std_exception_data* %7 to i8*, !dbg !3842
  call void @llvm.memset.p0i8.i64(i8* align 8 %8, i8 0, i64 16, i1 false), !dbg !3842
  %9 = getelementptr inbounds %"class.std::exception", %"class.std::exception"* %5, i32 0, i32 1, !dbg !3843
  %10 = load %"class.std::exception"*, %"class.std::exception"** %3, align 8, !dbg !3845
  %11 = getelementptr inbounds %"class.std::exception", %"class.std::exception"* %10, i32 0, i32 1, !dbg !3846
  invoke void @__std_exception_copy(%struct.__std_exception_data* %11, %struct.__std_exception_data* %9)
          to label %12 unwind label %13, !dbg !3847

12:                                               ; preds = %2
  ret %"class.std::exception"* %5, !dbg !3848

13:                                               ; preds = %2
  %14 = cleanuppad within none [], !dbg !3847
  call void @__std_terminate() #18 [ "funclet"(token %14) ], !dbg !3847
  unreachable, !dbg !3847
}

; Function Attrs: noinline nounwind optnone uwtable
define linkonce_odr dso_local void @"??1bad_optional_access@std@@UEAA@XZ"(%"class.std::bad_optional_access"* %0) unnamed_addr #1 comdat align 2 !dbg !3849 {
  %2 = alloca %"class.std::bad_optional_access"*, align 8
  store %"class.std::bad_optional_access"* %0, %"class.std::bad_optional_access"** %2, align 8
  call void @llvm.dbg.declare(metadata %"class.std::bad_optional_access"** %2, metadata !3851, metadata !DIExpression()), !dbg !3852
  %3 = load %"class.std::bad_optional_access"*, %"class.std::bad_optional_access"** %2, align 8
  %4 = bitcast %"class.std::bad_optional_access"* %3 to %"class.std::exception"*, !dbg !3853
  call void @"??1exception@std@@UEAA@XZ"(%"class.std::exception"* %4) #5, !dbg !3853
  ret void, !dbg !3855
}

declare dso_local void @_CxxThrowException(i8*, %eh.ThrowInfo*)

; Function Attrs: noinline nounwind optnone uwtable
define linkonce_odr dso_local %"class.std::exception"* @"??0exception@std@@QEAA@XZ"(%"class.std::exception"* returned %0) unnamed_addr #1 comdat align 2 !dbg !3856 {
  %2 = alloca %"class.std::exception"*, align 8
  store %"class.std::exception"* %0, %"class.std::exception"** %2, align 8
  call void @llvm.dbg.declare(metadata %"class.std::exception"** %2, metadata !3857, metadata !DIExpression()), !dbg !3858
  %3 = load %"class.std::exception"*, %"class.std::exception"** %2, align 8
  %4 = bitcast %"class.std::exception"* %3 to i32 (...)***, !dbg !3859
  store i32 (...)** bitcast (i8** @"??_7exception@std@@6B@" to i32 (...)**), i32 (...)*** %4, align 8, !dbg !3859
  %5 = getelementptr inbounds %"class.std::exception", %"class.std::exception"* %3, i32 0, i32 1, !dbg !3860
  %6 = bitcast %struct.__std_exception_data* %5 to i8*, !dbg !3860
  call void @llvm.memset.p0i8.i64(i8* align 8 %6, i8 0, i64 16, i1 false), !dbg !3860
  ret %"class.std::exception"* %3, !dbg !3861
}

; Function Attrs: noinline nounwind optnone uwtable
define linkonce_odr dso_local i8* @"??_Gbad_optional_access@std@@UEAAPEAXI@Z"(%"class.std::bad_optional_access"* %0, i32 %1) unnamed_addr #1 comdat align 2 !dbg !3862 {
  %3 = alloca i8*, align 8
  %4 = alloca i32, align 4
  %5 = alloca %"class.std::bad_optional_access"*, align 8
  store i32 %1, i32* %4, align 4
  call void @llvm.dbg.declare(metadata i32* %4, metadata !3863, metadata !DIExpression()), !dbg !3864
  store %"class.std::bad_optional_access"* %0, %"class.std::bad_optional_access"** %5, align 8
  call void @llvm.dbg.declare(metadata %"class.std::bad_optional_access"** %5, metadata !3865, metadata !DIExpression()), !dbg !3864
  %6 = load %"class.std::bad_optional_access"*, %"class.std::bad_optional_access"** %5, align 8
  %7 = bitcast %"class.std::bad_optional_access"* %6 to i8*
  store i8* %7, i8** %3, align 8
  %8 = load i32, i32* %4, align 4
  call void @"??1bad_optional_access@std@@UEAA@XZ"(%"class.std::bad_optional_access"* %6) #5, !dbg !3866
  %9 = icmp eq i32 %8, 0, !dbg !3866
  br i1 %9, label %12, label %10, !dbg !3866

10:                                               ; preds = %2
  %11 = bitcast %"class.std::bad_optional_access"* %6 to i8*, !dbg !3866
  call void @"??3@YAXPEAX@Z"(i8* %11) #17, !dbg !3866
  br label %12, !dbg !3866

12:                                               ; preds = %10, %2
  %13 = load i8*, i8** %3, align 8, !dbg !3866
  ret i8* %13, !dbg !3866
}

; Function Attrs: noinline nounwind optnone uwtable
define linkonce_odr dso_local i8* @"?what@bad_optional_access@std@@UEBAPEBDXZ"(%"class.std::bad_optional_access"* %0) unnamed_addr #1 comdat align 2 !dbg !3867 {
  %2 = alloca %"class.std::bad_optional_access"*, align 8
  store %"class.std::bad_optional_access"* %0, %"class.std::bad_optional_access"** %2, align 8
  call void @llvm.dbg.declare(metadata %"class.std::bad_optional_access"** %2, metadata !3868, metadata !DIExpression()), !dbg !3870
  %3 = load %"class.std::bad_optional_access"*, %"class.std::bad_optional_access"** %2, align 8
  ret i8* getelementptr inbounds ([20 x i8], [20 x i8]* @"??_C@_0BE@LMOOKEAD@Bad?5optional?5access?$AA@", i64 0, i64 0), !dbg !3871
}

; Function Attrs: noinline nounwind optnone uwtable
define linkonce_odr dso_local i8* @"??_Gexception@std@@UEAAPEAXI@Z"(%"class.std::exception"* %0, i32 %1) unnamed_addr #1 comdat align 2 !dbg !3872 {
  %3 = alloca i8*, align 8
  %4 = alloca i32, align 4
  %5 = alloca %"class.std::exception"*, align 8
  store i32 %1, i32* %4, align 4
  call void @llvm.dbg.declare(metadata i32* %4, metadata !3873, metadata !DIExpression()), !dbg !3874
  store %"class.std::exception"* %0, %"class.std::exception"** %5, align 8
  call void @llvm.dbg.declare(metadata %"class.std::exception"** %5, metadata !3875, metadata !DIExpression()), !dbg !3874
  %6 = load %"class.std::exception"*, %"class.std::exception"** %5, align 8
  %7 = bitcast %"class.std::exception"* %6 to i8*
  store i8* %7, i8** %3, align 8
  %8 = load i32, i32* %4, align 4
  call void @"??1exception@std@@UEAA@XZ"(%"class.std::exception"* %6) #5, !dbg !3876
  %9 = icmp eq i32 %8, 0, !dbg !3876
  br i1 %9, label %12, label %10, !dbg !3876

10:                                               ; preds = %2
  %11 = bitcast %"class.std::exception"* %6 to i8*, !dbg !3876
  call void @"??3@YAXPEAX@Z"(i8* %11) #17, !dbg !3876
  br label %12, !dbg !3876

12:                                               ; preds = %10, %2
  %13 = load i8*, i8** %3, align 8, !dbg !3877
  ret i8* %13, !dbg !3877
}

; Function Attrs: noinline optnone uwtable
define linkonce_odr dso_local i8* @"?what@exception@std@@UEBAPEBDXZ"(%"class.std::exception"* %0) unnamed_addr #0 comdat align 2 !dbg !3878 {
  %2 = alloca %"class.std::exception"*, align 8
  store %"class.std::exception"* %0, %"class.std::exception"** %2, align 8
  call void @llvm.dbg.declare(metadata %"class.std::exception"** %2, metadata !3879, metadata !DIExpression()), !dbg !3881
  %3 = load %"class.std::exception"*, %"class.std::exception"** %2, align 8
  %4 = getelementptr inbounds %"class.std::exception", %"class.std::exception"* %3, i32 0, i32 1, !dbg !3882
  %5 = getelementptr inbounds %struct.__std_exception_data, %struct.__std_exception_data* %4, i32 0, i32 0, !dbg !3883
  %6 = load i8*, i8** %5, align 8, !dbg !3883
  %7 = icmp ne i8* %6, null, !dbg !3882
  br i1 %7, label %8, label %12, !dbg !3882

8:                                                ; preds = %1
  %9 = getelementptr inbounds %"class.std::exception", %"class.std::exception"* %3, i32 0, i32 1, !dbg !3884
  %10 = getelementptr inbounds %struct.__std_exception_data, %struct.__std_exception_data* %9, i32 0, i32 0, !dbg !3885
  %11 = load i8*, i8** %10, align 8, !dbg !3885
  br label %13, !dbg !3882

12:                                               ; preds = %1
  br label %13, !dbg !3882

13:                                               ; preds = %12, %8
  %14 = phi i8* [ %11, %8 ], [ getelementptr inbounds ([18 x i8], [18 x i8]* @"??_C@_0BC@EOODALEL@Unknown?5exception?$AA@", i64 0, i64 0), %12 ], !dbg !3882
  ret i8* %14, !dbg !3886
}

; Function Attrs: noinline nounwind optnone uwtable
define linkonce_odr dso_local void @"??1exception@std@@UEAA@XZ"(%"class.std::exception"* %0) unnamed_addr #1 comdat align 2 personality i8* bitcast (i32 (...)* @__CxxFrameHandler3 to i8*) !dbg !3887 {
  %2 = alloca %"class.std::exception"*, align 8
  store %"class.std::exception"* %0, %"class.std::exception"** %2, align 8
  call void @llvm.dbg.declare(metadata %"class.std::exception"** %2, metadata !3888, metadata !DIExpression()), !dbg !3889
  %3 = load %"class.std::exception"*, %"class.std::exception"** %2, align 8
  %4 = bitcast %"class.std::exception"* %3 to i32 (...)***, !dbg !3890
  store i32 (...)** bitcast (i8** @"??_7exception@std@@6B@" to i32 (...)**), i32 (...)*** %4, align 8, !dbg !3890
  %5 = getelementptr inbounds %"class.std::exception", %"class.std::exception"* %3, i32 0, i32 1, !dbg !3891
  invoke void @__std_exception_destroy(%struct.__std_exception_data* %5)
          to label %6 unwind label %7, !dbg !3893

6:                                                ; preds = %1
  ret void, !dbg !3894

7:                                                ; preds = %1
  %8 = cleanuppad within none [], !dbg !3893
  call void @__std_terminate() #18 [ "funclet"(token %8) ], !dbg !3893
  unreachable, !dbg !3893
}

declare dso_local void @__std_exception_destroy(%struct.__std_exception_data*) #6

declare dso_local void @__std_exception_copy(%struct.__std_exception_data*, %struct.__std_exception_data*) #6

; Function Attrs: noinline optnone uwtable
define linkonce_odr dso_local %"class.std::_Compressed_pair.0"* @"??$?0$$V@?$_Compressed_pair@V?$allocator@D@std@@V?$_String_val@U?$_Simple_types@D@std@@@2@$00@std@@QEAA@U_Zero_then_variadic_args_t@1@@Z"(%"class.std::_Compressed_pair.0"* returned %0, i8 %1) unnamed_addr #0 comdat align 2 personality i8* bitcast (i32 (...)* @__CxxFrameHandler3 to i8*) !dbg !3895 {
  %3 = alloca %"struct.std::_Zero_then_variadic_args_t", align 1
  %4 = alloca %"class.std::_Compressed_pair.0"*, align 8
  %5 = getelementptr inbounds %"struct.std::_Zero_then_variadic_args_t", %"struct.std::_Zero_then_variadic_args_t"* %3, i32 0, i32 0
  store i8 %1, i8* %5, align 1
  call void @llvm.dbg.declare(metadata %"struct.std::_Zero_then_variadic_args_t"* %3, metadata !3899, metadata !DIExpression()), !dbg !3900
  store %"class.std::_Compressed_pair.0"* %0, %"class.std::_Compressed_pair.0"** %4, align 8
  call void @llvm.dbg.declare(metadata %"class.std::_Compressed_pair.0"** %4, metadata !3901, metadata !DIExpression()), !dbg !3902
  %6 = load %"class.std::_Compressed_pair.0"*, %"class.std::_Compressed_pair.0"** %4, align 8
  %7 = bitcast %"class.std::_Compressed_pair.0"* %6 to %"class.std::allocator"*, !dbg !3903
  %8 = call %"class.std::allocator"* @"??0?$allocator@D@std@@QEAA@XZ"(%"class.std::allocator"* %7) #5, !dbg !3904
  %9 = getelementptr inbounds %"class.std::_Compressed_pair.0", %"class.std::_Compressed_pair.0"* %6, i32 0, i32 0, !dbg !3905
